

Microchip MPLAB XC8 Assembler V2.41 build 20230208172133 
                                                                                               Thu Sep 28 18:56:16 2023

Microchip MPLAB XC8 C Compiler v2.41 (Free license) build 20230208172133 Og1 
     1                           	processor	16F877A
     2                           	pagewidth 120
     3                           	opt	flic
     4                           	psect	idataBANK0,global,class=CODE,delta=2,noexec
     5                           	psect	strings,global,class=STRING,delta=2,noexec
     6                           	psect	stringtext,global,reloc=256,class=STRCODE,delta=2,noexec
     7                           	psect	cinit,global,class=CODE,merge=1,delta=2
     8                           	psect	bssBANK0,global,class=BANK0,space=1,delta=1,noexec
     9                           	psect	dataBANK0,global,class=BANK0,space=1,delta=1,noexec
    10                           	psect	clrtext,global,class=CODE,delta=2
    11                           	psect	cstackCOMMON,global,class=COMMON,space=1,delta=1,noexec
    12                           	psect	cstackBANK0,global,class=BANK0,space=1,delta=1,noexec
    13                           	psect	maintext,global,class=CODE,split=1,delta=2
    14                           	psect	text1,local,class=CODE,merge=1,delta=2
    15                           	psect	text2,local,class=CODE,merge=1,delta=2
    16                           	psect	text3,local,class=CODE,merge=1,delta=2
    17                           	psect	text4,local,class=CODE,merge=1,delta=2
    18                           	psect	text5,local,class=CODE,merge=1,delta=2
    19                           	psect	text6,local,class=CODE,merge=1,delta=2
    20                           	psect	text7,local,class=CODE,merge=1,delta=2
    21                           	psect	text8,local,class=CODE,merge=1,delta=2
    22                           	psect	text9,local,class=CODE,merge=1,delta=2
    23                           	psect	text10,local,class=CODE,merge=1,delta=2
    24                           	psect	text11,local,class=CODE,merge=1,delta=2,group=1
    25                           	psect	text12,local,class=CODE,merge=1,delta=2,group=1
    26                           	psect	text13,local,class=CODE,merge=1,delta=2,group=1
    27                           	psect	text14,local,class=CODE,merge=1,delta=2
    28                           	psect	text15,local,class=CODE,merge=1,delta=2
    29                           	psect	text16,local,class=CODE,merge=1,delta=2
    30                           	psect	text17,local,class=CODE,merge=1,delta=2
    31                           	psect	text18,local,class=CODE,merge=1,delta=2
    32                           	psect	text19,local,class=CODE,merge=1,delta=2
    33                           	psect	text20,local,class=CODE,merge=1,delta=2
    34                           	psect	text21,local,class=CODE,merge=1,delta=2
    35                           	psect	config,global,abs,ovrld,class=CONFIG,space=4,delta=2,noexec
    36                           	dabs	1,0x7E,2
    37     0000                     
    38                           ; Generated 22/03/2023 GMT
    39                           ; 
    40                           ; Copyright © 2023, Microchip Technology Inc. and its subsidiaries ("Microchip")
    41                           ; All rights reserved.
    42                           ; 
    43                           ; This software is developed by Microchip Technology Inc. and its subsidiaries ("Microch
      +                          ip").
    44                           ; 
    45                           ; Redistribution and use in source and binary forms, with or without modification, are
    46                           ; permitted provided that the following conditions are met:
    47                           ; 
    48                           ;     1. Redistributions of source code must retain the above copyright notice, this lis
      +                          t of
    49                           ;        conditions and the following disclaimer.
    50                           ; 
    51                           ;     2. Redistributions in binary form must reproduce the above copyright notice, this 
      +                          list
    52                           ;        of conditions and the following disclaimer in the documentation and/or other
    53                           ;        materials provided with the distribution. Publication is not required when
    54                           ;        this file is used in an embedded application.
    55                           ; 
    56                           ;     3. Microchip's name may not be used to endorse or promote products derived from th
      +                          is
    57                           ;        software without specific prior written permission.
    58                           ; 
    59                           ; THIS SOFTWARE IS PROVIDED BY MICROCHIP "AS IS" AND ANY EXPRESS OR IMPLIED WARRANTIES,
    60                           ; INCLUDING, BUT NOT LIMITED TO, THE IMPLIED WARRANTIES OF MERCHANTABILITY AND FITNESS F
      +                          OR
    61                           ; PURPOSE ARE DISCLAIMED.  IN NO EVENT SHALL MICROCHIP BE LIABLE FOR ANY DIRECT, INDIREC
      +                          T,
    62                           ; INCIDENTAL, SPECIAL, EXEMPLARY, OR CONSEQUENTIAL DAMAGES (INCLUDING BUT NOT LIMITED TO
    63                           ; PROCUREMENT OF SUBSTITUTE GOODS OR SERVICES; LOSS OF USE, DATA OR PROFITS; OR BUSINESS
    64                           ; INTERRUPTION) HOWSOEVER CAUSED AND ON ANY THEORY OF LIABILITY, WHETHER IN CONTRACT, ST
      +                          RICT
    65                           ; LIABILITY, OR TORT (INCLUDING NEGLIGENCE OR OTHERWISE) ARISING IN ANY WAY OUT OF THE U
      +                          SE OF
    66                           ; THIS SOFTWARE, EVEN IF ADVISED OF THE POSSIBILITY OF SUCH DAMAGE.
    67                           ; 
    68                           ; 
    69                           ; Code-generator required, PIC16F877A Definitions
    70                           ; 
    71                           ; SFR Addresses
    72     0000                     	;# 
    73     0001                     	;# 
    74     0002                     	;# 
    75     0003                     	;# 
    76     0004                     	;# 
    77     0005                     	;# 
    78     0006                     	;# 
    79     0007                     	;# 
    80     0008                     	;# 
    81     0009                     	;# 
    82     000A                     	;# 
    83     000B                     	;# 
    84     000C                     	;# 
    85     000D                     	;# 
    86     000E                     	;# 
    87     000E                     	;# 
    88     000F                     	;# 
    89     0010                     	;# 
    90     0011                     	;# 
    91     0012                     	;# 
    92     0013                     	;# 
    93     0014                     	;# 
    94     0015                     	;# 
    95     0015                     	;# 
    96     0016                     	;# 
    97     0017                     	;# 
    98     0018                     	;# 
    99     0019                     	;# 
   100     001A                     	;# 
   101     001B                     	;# 
   102     001B                     	;# 
   103     001C                     	;# 
   104     001D                     	;# 
   105     001E                     	;# 
   106     001F                     	;# 
   107     0081                     	;# 
   108     0085                     	;# 
   109     0086                     	;# 
   110     0087                     	;# 
   111     0088                     	;# 
   112     0089                     	;# 
   113     008C                     	;# 
   114     008D                     	;# 
   115     008E                     	;# 
   116     0091                     	;# 
   117     0092                     	;# 
   118     0093                     	;# 
   119     0094                     	;# 
   120     0098                     	;# 
   121     0099                     	;# 
   122     009C                     	;# 
   123     009D                     	;# 
   124     009E                     	;# 
   125     009F                     	;# 
   126     010C                     	;# 
   127     010D                     	;# 
   128     010E                     	;# 
   129     010F                     	;# 
   130     018C                     	;# 
   131     018D                     	;# 
   132     0000                     	;# 
   133     0001                     	;# 
   134     0002                     	;# 
   135     0003                     	;# 
   136     0004                     	;# 
   137     0005                     	;# 
   138     0006                     	;# 
   139     0007                     	;# 
   140     0008                     	;# 
   141     0009                     	;# 
   142     000A                     	;# 
   143     000B                     	;# 
   144     000C                     	;# 
   145     000D                     	;# 
   146     000E                     	;# 
   147     000E                     	;# 
   148     000F                     	;# 
   149     0010                     	;# 
   150     0011                     	;# 
   151     0012                     	;# 
   152     0013                     	;# 
   153     0014                     	;# 
   154     0015                     	;# 
   155     0015                     	;# 
   156     0016                     	;# 
   157     0017                     	;# 
   158     0018                     	;# 
   159     0019                     	;# 
   160     001A                     	;# 
   161     001B                     	;# 
   162     001B                     	;# 
   163     001C                     	;# 
   164     001D                     	;# 
   165     001E                     	;# 
   166     001F                     	;# 
   167     0081                     	;# 
   168     0085                     	;# 
   169     0086                     	;# 
   170     0087                     	;# 
   171     0088                     	;# 
   172     0089                     	;# 
   173     008C                     	;# 
   174     008D                     	;# 
   175     008E                     	;# 
   176     0091                     	;# 
   177     0092                     	;# 
   178     0093                     	;# 
   179     0094                     	;# 
   180     0098                     	;# 
   181     0099                     	;# 
   182     009C                     	;# 
   183     009D                     	;# 
   184     009E                     	;# 
   185     009F                     	;# 
   186     010C                     	;# 
   187     010D                     	;# 
   188     010E                     	;# 
   189     010F                     	;# 
   190     018C                     	;# 
   191     018D                     	;# 
   192     0000                     	;# 
   193     0001                     	;# 
   194     0002                     	;# 
   195     0003                     	;# 
   196     0004                     	;# 
   197     0005                     	;# 
   198     0006                     	;# 
   199     0007                     	;# 
   200     0008                     	;# 
   201     0009                     	;# 
   202     000A                     	;# 
   203     000B                     	;# 
   204     000C                     	;# 
   205     000D                     	;# 
   206     000E                     	;# 
   207     000E                     	;# 
   208     000F                     	;# 
   209     0010                     	;# 
   210     0011                     	;# 
   211     0012                     	;# 
   212     0013                     	;# 
   213     0014                     	;# 
   214     0015                     	;# 
   215     0015                     	;# 
   216     0016                     	;# 
   217     0017                     	;# 
   218     0018                     	;# 
   219     0019                     	;# 
   220     001A                     	;# 
   221     001B                     	;# 
   222     001B                     	;# 
   223     001C                     	;# 
   224     001D                     	;# 
   225     001E                     	;# 
   226     001F                     	;# 
   227     0081                     	;# 
   228     0085                     	;# 
   229     0086                     	;# 
   230     0087                     	;# 
   231     0088                     	;# 
   232     0089                     	;# 
   233     008C                     	;# 
   234     008D                     	;# 
   235     008E                     	;# 
   236     0091                     	;# 
   237     0092                     	;# 
   238     0093                     	;# 
   239     0094                     	;# 
   240     0098                     	;# 
   241     0099                     	;# 
   242     009C                     	;# 
   243     009D                     	;# 
   244     009E                     	;# 
   245     009F                     	;# 
   246     010C                     	;# 
   247     010D                     	;# 
   248     010E                     	;# 
   249     010F                     	;# 
   250     018C                     	;# 
   251     018D                     	;# 
   252     0000                     	;# 
   253     0001                     	;# 
   254     0002                     	;# 
   255     0003                     	;# 
   256     0004                     	;# 
   257     0005                     	;# 
   258     0006                     	;# 
   259     0007                     	;# 
   260     0008                     	;# 
   261     0009                     	;# 
   262     000A                     	;# 
   263     000B                     	;# 
   264     000C                     	;# 
   265     000D                     	;# 
   266     000E                     	;# 
   267     000E                     	;# 
   268     000F                     	;# 
   269     0010                     	;# 
   270     0011                     	;# 
   271     0012                     	;# 
   272     0013                     	;# 
   273     0014                     	;# 
   274     0015                     	;# 
   275     0015                     	;# 
   276     0016                     	;# 
   277     0017                     	;# 
   278     0018                     	;# 
   279     0019                     	;# 
   280     001A                     	;# 
   281     001B                     	;# 
   282     001B                     	;# 
   283     001C                     	;# 
   284     001D                     	;# 
   285     001E                     	;# 
   286     001F                     	;# 
   287     0081                     	;# 
   288     0085                     	;# 
   289     0086                     	;# 
   290     0087                     	;# 
   291     0088                     	;# 
   292     0089                     	;# 
   293     008C                     	;# 
   294     008D                     	;# 
   295     008E                     	;# 
   296     0091                     	;# 
   297     0092                     	;# 
   298     0093                     	;# 
   299     0094                     	;# 
   300     0098                     	;# 
   301     0099                     	;# 
   302     009C                     	;# 
   303     009D                     	;# 
   304     009E                     	;# 
   305     009F                     	;# 
   306     010C                     	;# 
   307     010D                     	;# 
   308     010E                     	;# 
   309     010F                     	;# 
   310     018C                     	;# 
   311     018D                     	;# 
   312     0000                     	;# 
   313     0001                     	;# 
   314     0002                     	;# 
   315     0003                     	;# 
   316     0004                     	;# 
   317     0005                     	;# 
   318     0006                     	;# 
   319     0007                     	;# 
   320     0008                     	;# 
   321     0009                     	;# 
   322     000A                     	;# 
   323     000B                     	;# 
   324     000C                     	;# 
   325     000D                     	;# 
   326     000E                     	;# 
   327     000E                     	;# 
   328     000F                     	;# 
   329     0010                     	;# 
   330     0011                     	;# 
   331     0012                     	;# 
   332     0013                     	;# 
   333     0014                     	;# 
   334     0015                     	;# 
   335     0015                     	;# 
   336     0016                     	;# 
   337     0017                     	;# 
   338     0018                     	;# 
   339     0019                     	;# 
   340     001A                     	;# 
   341     001B                     	;# 
   342     001B                     	;# 
   343     001C                     	;# 
   344     001D                     	;# 
   345     001E                     	;# 
   346     001F                     	;# 
   347     0081                     	;# 
   348     0085                     	;# 
   349     0086                     	;# 
   350     0087                     	;# 
   351     0088                     	;# 
   352     0089                     	;# 
   353     008C                     	;# 
   354     008D                     	;# 
   355     008E                     	;# 
   356     0091                     	;# 
   357     0092                     	;# 
   358     0093                     	;# 
   359     0094                     	;# 
   360     0098                     	;# 
   361     0099                     	;# 
   362     009C                     	;# 
   363     009D                     	;# 
   364     009E                     	;# 
   365     009F                     	;# 
   366     010C                     	;# 
   367     010D                     	;# 
   368     010E                     	;# 
   369     010F                     	;# 
   370     018C                     	;# 
   371     018D                     	;# 
   372                           
   373                           	psect	idataBANK0
   374     0005                     __pidataBANK0:
   375                           
   376                           ;initializer for read_matrix_keypad@once
   377     0005  3401               	retlw	1
   378     0008                     _PORTD	set	8
   379     0091                     _T2CKPS1	set	145
   380     0090                     _T2CKPS0	set	144
   381     0032                     _RB2	set	50
   382     0031                     _RB1	set	49
   383     0030                     _RB0	set	48
   384     0040                     _RD0	set	64
   385     0041                     _RD1	set	65
   386     0042                     _RD2	set	66
   387     0043                     _RD3	set	67
   388     0049                     _RE1	set	73
   389     004A                     _RE2	set	74
   390     0033                     _RB3	set	51
   391     0092                     _TMR2ON	set	146
   392     005F                     _GIE	set	95
   393     005E                     _PEIE	set	94
   394     003A                     _RC2	set	58
   395     0039                     _RC1	set	57
   396     0092                     _PR2	set	146
   397     0086                     _TRISB	set	134
   398     0088                     _TRISD	set	136
   399     0461                     _TMR2IE	set	1121
   400     040F                     _nRBPU	set	1039
   401     0449                     _TRISE1	set	1097
   402     044A                     _TRISE2	set	1098
   403     043A                     _TRISC2	set	1082
   404     0439                     _TRISC1	set	1081
   405                           
   406                           	psect	strings
   407     0933                     __pstrings:
   408     0933                     stringtab:
   409     0933                     __stringtab:
   410                           
   411                           ;	String table - string pointers are 2 bytes each
   412     0933  1BFF               	btfsc	btemp+1,7
   413     0934  293D               	ljmp	stringcode
   414     0935  1383               	bcf	3,7
   415     0936  187F               	btfsc	btemp+1,0
   416     0937  1783               	bsf	3,7
   417     0938  0800               	movf	0,w
   418     0939  0A84               	incf	4,f
   419     093A  1903               	skipnz
   420     093B  0AFF               	incf	btemp+1,f
   421     093C  0008               	return
   422     093D                     stringcode:
   423     093D  087F               	movf	btemp+1,w
   424     093E  397F               	andlw	127
   425     093F  008A               	movwf	10
   426     0940  0804               	movf	4,w
   427     0941  0A84               	incf	4,f
   428     0942  1903               	skipnz
   429     0943  0AFF               	incf	btemp+1,f
   430     0944  0082               	movwf	2
   431     0945                     __stringbase:
   432     0945                     __end_of__stringtab:
   433                           
   434                           	psect	stringtext
   435     0800                     __pstringtext:
   436     0800                     STR_18:
   437     0800  3420               	retlw	32	;' '
   438     0801  3436               	retlw	54	;'6'
   439     0802  342E               	retlw	46	;'.'
   440     0803  3453               	retlw	83	;'S'
   441     0804  3454               	retlw	84	;'T'
   442     0805  344F               	retlw	79	;'O'
   443     0806  3450               	retlw	80	;'P'
   444     0807  3420               	retlw	32	;' '
   445     0808  3420               	retlw	32	;' '
   446     0809  3420               	retlw	32	;' '
   447     080A  3420               	retlw	32	;' '
   448     080B  3420               	retlw	32	;' '
   449     080C  3420               	retlw	32	;' '
   450     080D  3420               	retlw	32	;' '
   451     080E  3420               	retlw	32	;' '
   452     080F  3420               	retlw	32	;' '
   453     0810  3400               	retlw	0
   454     0811                     STR_17:
   455     0811  3420               	retlw	32	;' '
   456     0812  3435               	retlw	53	;'5'
   457     0813  342E               	retlw	46	;'.'
   458     0814  3450               	retlw	80	;'P'
   459     0815  3441               	retlw	65	;'A'
   460     0816  3455               	retlw	85	;'U'
   461     0817  3453               	retlw	83	;'S'
   462     0818  3445               	retlw	69	;'E'
   463     0819  3420               	retlw	32	;' '
   464     081A  3420               	retlw	32	;' '
   465     081B  3420               	retlw	32	;' '
   466     081C  3420               	retlw	32	;' '
   467     081D  3420               	retlw	32	;' '
   468     081E  3420               	retlw	32	;' '
   469     081F  3420               	retlw	32	;' '
   470     0820  3420               	retlw	32	;' '
   471     0821  3400               	retlw	0
   472     0822                     STR_16:
   473     0822  3420               	retlw	32	;' '
   474     0823  3434               	retlw	52	;'4'
   475     0824  342E               	retlw	46	;'.'
   476     0825  3453               	retlw	83	;'S'
   477     0826  3454               	retlw	84	;'T'
   478     0827  3441               	retlw	65	;'A'
   479     0828  3452               	retlw	82	;'R'
   480     0829  3454               	retlw	84	;'T'
   481     082A  342F               	retlw	47	;'/'
   482     082B  3452               	retlw	82	;'R'
   483     082C  3445               	retlw	69	;'E'
   484     082D  3453               	retlw	83	;'S'
   485     082E  3455               	retlw	85	;'U'
   486     082F  344D               	retlw	77	;'M'
   487     0830  3445               	retlw	69	;'E'
   488     0831  3420               	retlw	32	;' '
   489     0832  3400               	retlw	0
   490     0833                     STR_3:
   491     0833  3420               	retlw	32	;' '
   492     0834  344D               	retlw	77	;'M'
   493     0835  3469               	retlw	105	;'i'
   494     0836  3463               	retlw	99	;'c'
   495     0837  3472               	retlw	114	;'r'
   496     0838  346F               	retlw	111	;'o'
   497     0839  3477               	retlw	119	;'w'
   498     083A  3461               	retlw	97	;'a'
   499     083B  3476               	retlw	118	;'v'
   500     083C  3465               	retlw	101	;'e'
   501     083D  3420               	retlw	32	;' '
   502     083E  344F               	retlw	79	;'O'
   503     083F  3476               	retlw	118	;'v'
   504     0840  3465               	retlw	101	;'e'
   505     0841  346E               	retlw	110	;'n'
   506     0842  3420               	retlw	32	;' '
   507     0843  3400               	retlw	0
   508     0844                     STR_8:
   509     0844  3453               	retlw	83	;'S'
   510     0845  3445               	retlw	69	;'E'
   511     0846  3454               	retlw	84	;'T'
   512     0847  3420               	retlw	32	;' '
   513     0848  3454               	retlw	84	;'T'
   514     0849  3449               	retlw	73	;'I'
   515     084A  344D               	retlw	77	;'M'
   516     084B  3445               	retlw	69	;'E'
   517     084C  3420               	retlw	32	;' '
   518     084D  3428               	retlw	40	;'('
   519     084E  344D               	retlw	77	;'M'
   520     084F  344D               	retlw	77	;'M'
   521     0850  343A               	retlw	58	;':'
   522     0851  3453               	retlw	83	;'S'
   523     0852  3453               	retlw	83	;'S'
   524     0853  3429               	retlw	41	;')'
   525     0854  3400               	retlw	0
   526     0855                     STR_13:
   527     0855  3444               	retlw	68	;'D'
   528     0856  346F               	retlw	111	;'o'
   529     0857  346F               	retlw	111	;'o'
   530     0858  3472               	retlw	114	;'r'
   531     0859  3420               	retlw	32	;' '
   532     085A  3453               	retlw	83	;'S'
   533     085B  3474               	retlw	116	;'t'
   534     085C  3461               	retlw	97	;'a'
   535     085D  3474               	retlw	116	;'t'
   536     085E  3475               	retlw	117	;'u'
   537     085F  3473               	retlw	115	;'s'
   538     0860  343A               	retlw	58	;':'
   539     0861  344F               	retlw	79	;'O'
   540     0862  3450               	retlw	80	;'P'
   541     0863  3445               	retlw	69	;'E'
   542     0864  344E               	retlw	78	;'N'
   543     0865  3400               	retlw	0
   544     0866                     STR_10:
   545     0866  342A               	retlw	42	;'*'
   546     0867  343A               	retlw	58	;':'
   547     0868  3443               	retlw	67	;'C'
   548     0869  344C               	retlw	76	;'L'
   549     086A  3445               	retlw	69	;'E'
   550     086B  3441               	retlw	65	;'A'
   551     086C  3452               	retlw	82	;'R'
   552     086D  3420               	retlw	32	;' '
   553     086E  3420               	retlw	32	;' '
   554     086F  3423               	retlw	35	;'#'
   555     0870  343A               	retlw	58	;':'
   556     0871  3445               	retlw	69	;'E'
   557     0872  344E               	retlw	78	;'N'
   558     0873  3454               	retlw	84	;'T'
   559     0874  3445               	retlw	69	;'E'
   560     0875  3452               	retlw	82	;'R'
   561     0876  3400               	retlw	0
   562     0877                     STR_19:
   563     0877  3443               	retlw	67	;'C'
   564     0878  346F               	retlw	111	;'o'
   565     0879  346F               	retlw	111	;'o'
   566     087A  346B               	retlw	107	;'k'
   567     087B  3469               	retlw	105	;'i'
   568     087C  346E               	retlw	110	;'n'
   569     087D  3467               	retlw	103	;'g'
   570     087E  3420               	retlw	32	;' '
   571     087F  3454               	retlw	84	;'T'
   572     0880  3469               	retlw	105	;'i'
   573     0881  346D               	retlw	109	;'m'
   574     0882  3465               	retlw	101	;'e'
   575     0883  3420               	retlw	32	;' '
   576     0884  3455               	retlw	85	;'U'
   577     0885  3450               	retlw	80	;'P'
   578     0886  3400               	retlw	0
   579     0887                     STR_2:
   580     0887  3420               	retlw	32	;' '
   581     0888  3420               	retlw	32	;' '
   582     0889  3450               	retlw	80	;'P'
   583     088A  346F               	retlw	111	;'o'
   584     088B  3477               	retlw	119	;'w'
   585     088C  3465               	retlw	101	;'e'
   586     088D  3472               	retlw	114	;'r'
   587     088E  3469               	retlw	105	;'i'
   588     088F  346E               	retlw	110	;'n'
   589     0890  3467               	retlw	103	;'g'
   590     0891  3420               	retlw	32	;' '
   591     0892  344F               	retlw	79	;'O'
   592     0893  344E               	retlw	78	;'N'
   593     0894  3420               	retlw	32	;' '
   594     0895  3400               	retlw	0
   595     0896                     STR_24:
   596     0896  3420               	retlw	32	;' '
   597     0897  3449               	retlw	73	;'I'
   598     0898  346E               	retlw	110	;'n'
   599     0899  3476               	retlw	118	;'v'
   600     089A  3461               	retlw	97	;'a'
   601     089B  346C               	retlw	108	;'l'
   602     089C  3469               	retlw	105	;'i'
   603     089D  3464               	retlw	100	;'d'
   604     089E  3420               	retlw	32	;' '
   605     089F  3454               	retlw	84	;'T'
   606     08A0  3465               	retlw	101	;'e'
   607     08A1  346D               	retlw	109	;'m'
   608     08A2  3470               	retlw	112	;'p'
   609     08A3  342E               	retlw	46	;'.'
   610     08A4  3400               	retlw	0
   611     08A5                     STR_14:
   612     08A5  3420               	retlw	32	;' '
   613     08A6  3420               	retlw	32	;' '
   614     08A7  3450               	retlw	80	;'P'
   615     08A8  346C               	retlw	108	;'l'
   616     08A9  3465               	retlw	101	;'e'
   617     08AA  3461               	retlw	97	;'a'
   618     08AB  3473               	retlw	115	;'s'
   619     08AC  3465               	retlw	101	;'e'
   620     08AD  3420               	retlw	32	;' '
   621     08AE  3443               	retlw	67	;'C'
   622     08AF  346C               	retlw	108	;'l'
   623     08B0  346F               	retlw	111	;'o'
   624     08B1  3473               	retlw	115	;'s'
   625     08B2  3465               	retlw	101	;'e'
   626     08B3  3400               	retlw	0
   627     08B4                     STR_20:
   628     08B4  3453               	retlw	83	;'S'
   629     08B5  3445               	retlw	69	;'E'
   630     08B6  3454               	retlw	84	;'T'
   631     08B7  3420               	retlw	32	;' '
   632     08B8  3454               	retlw	84	;'T'
   633     08B9  3445               	retlw	69	;'E'
   634     08BA  344D               	retlw	77	;'M'
   635     08BB  3450               	retlw	80	;'P'
   636     08BC  342E               	retlw	46	;'.'
   637     08BD  3420               	retlw	32	;' '
   638     08BE  3428               	retlw	40	;'('
   639     08BF  3420               	retlw	32	;' '
   640     08C0  3420               	retlw	32	;' '
   641     08C1  3400               	retlw	0
   642     08C2                     STR_1:
   643     08C2  3420               	retlw	32	;' '
   644     08C3  3450               	retlw	80	;'P'
   645     08C4  346F               	retlw	111	;'o'
   646     08C5  3477               	retlw	119	;'w'
   647     08C6  3465               	retlw	101	;'e'
   648     08C7  3472               	retlw	114	;'r'
   649     08C8  3420               	retlw	32	;' '
   650     08C9  343D               	retlw	61	;'='
   651     08CA  3420               	retlw	32	;' '
   652     08CB  3439               	retlw	57	;'9'
   653     08CC  3430               	retlw	48	;'0'
   654     08CD  3430               	retlw	48	;'0'
   655     08CE  3457               	retlw	87	;'W'
   656     08CF  3400               	retlw	0
   657     08D0                     STR_25:
   658     08D0  3420               	retlw	32	;' '
   659     08D1  3420               	retlw	32	;' '
   660     08D2  3450               	retlw	80	;'P'
   661     08D3  3472               	retlw	114	;'r'
   662     08D4  3465               	retlw	101	;'e'
   663     08D5  342D               	retlw	45	;'-'
   664     08D6  3448               	retlw	72	;'H'
   665     08D7  3465               	retlw	101	;'e'
   666     08D8  3461               	retlw	97	;'a'
   667     08D9  3474               	retlw	116	;'t'
   668     08DA  3469               	retlw	105	;'i'
   669     08DB  346E               	retlw	110	;'n'
   670     08DC  3467               	retlw	103	;'g'
   671     08DD  3400               	retlw	0
   672     08DE                     STR_6:
   673     08DE  3433               	retlw	51	;'3'
   674     08DF  342E               	retlw	46	;'.'
   675     08E0  3443               	retlw	67	;'C'
   676     08E1  346F               	retlw	111	;'o'
   677     08E2  346E               	retlw	110	;'n'
   678     08E3  3476               	retlw	118	;'v'
   679     08E4  3465               	retlw	101	;'e'
   680     08E5  3463               	retlw	99	;'c'
   681     08E6  3474               	retlw	116	;'t'
   682     08E7  3469               	retlw	105	;'i'
   683     08E8  346F               	retlw	111	;'o'
   684     08E9  346E               	retlw	110	;'n'
   685     08EA  3400               	retlw	0
   686     08EB                     STR_22:
   687     08EB  3420               	retlw	32	;' '
   688     08EC  3454               	retlw	84	;'T'
   689     08ED  3445               	retlw	69	;'E'
   690     08EE  344D               	retlw	77	;'M'
   691     08EF  3450               	retlw	80	;'P'
   692     08F0  3420               	retlw	32	;' '
   693     08F1  343A               	retlw	58	;':'
   694     08F2  3420               	retlw	32	;' '
   695     08F3  3430               	retlw	48	;'0'
   696     08F4  3430               	retlw	48	;'0'
   697     08F5  3430               	retlw	48	;'0'
   698     08F6  3400               	retlw	0
   699     08F7                     STR_9:
   700     08F7  3454               	retlw	84	;'T'
   701     08F8  3449               	retlw	73	;'I'
   702     08F9  344D               	retlw	77	;'M'
   703     08FA  3445               	retlw	69	;'E'
   704     08FB  342D               	retlw	45	;'-'
   705     08FC  3420               	retlw	32	;' '
   706     08FD  3430               	retlw	48	;'0'
   707     08FE  3430               	retlw	48	;'0'
   708     08FF  343A               	retlw	58	;':'
   709     0900  3430               	retlw	48	;'0'
   710     0901  3430               	retlw	48	;'0'
   711     0902  3400               	retlw	0
   712     0903                     STR_26:
   713     0903  3454               	retlw	84	;'T'
   714     0904  3469               	retlw	105	;'i'
   715     0905  346D               	retlw	109	;'m'
   716     0906  3465               	retlw	101	;'e'
   717     0907  3420               	retlw	32	;' '
   718     0908  3452               	retlw	82	;'R'
   719     0909  3465               	retlw	101	;'e'
   720     090A  346D               	retlw	109	;'m'
   721     090B  342E               	retlw	46	;'.'
   722     090C  343D               	retlw	61	;'='
   723     090D  3400               	retlw	0
   724     090E                     STR_15:
   725     090E  3420               	retlw	32	;' '
   726     090F  3454               	retlw	84	;'T'
   727     0910  3449               	retlw	73	;'I'
   728     0911  344D               	retlw	77	;'M'
   729     0912  3445               	retlw	69	;'E'
   730     0913  3420               	retlw	32	;' '
   731     0914  343D               	retlw	61	;'='
   732     0915  3420               	retlw	32	;' '
   733     0916  3400               	retlw	0
   734     0917                     STR_5:
   735     0917  3432               	retlw	50	;'2'
   736     0918  342E               	retlw	46	;'.'
   737     0919  3447               	retlw	71	;'G'
   738     091A  3472               	retlw	114	;'r'
   739     091B  3469               	retlw	105	;'i'
   740     091C  346C               	retlw	108	;'l'
   741     091D  346C               	retlw	108	;'l'
   742     091E  3400               	retlw	0
   743     091F                     STR_4:
   744     091F  3431               	retlw	49	;'1'
   745     0920  342E               	retlw	46	;'.'
   746     0921  344D               	retlw	77	;'M'
   747     0922  3469               	retlw	105	;'i'
   748     0923  3463               	retlw	99	;'c'
   749     0924  3472               	retlw	114	;'r'
   750     0925  346F               	retlw	111	;'o'
   751     0926  3400               	retlw	0
   752     0927                     STR_7:
   753     0927  3434               	retlw	52	;'4'
   754     0928  342E               	retlw	46	;'.'
   755     0929  3453               	retlw	83	;'S'
   756     092A  3474               	retlw	116	;'t'
   757     092B  3461               	retlw	97	;'a'
   758     092C  3472               	retlw	114	;'r'
   759     092D  3474               	retlw	116	;'t'
   760     092E  3400               	retlw	0
   761     092F                     STR_21:
   762     092F  3443               	retlw	67	;'C'
   763     0930  3420               	retlw	32	;' '
   764     0931  3429               	retlw	41	;')'
   765     0932  3400               	retlw	0
   766     080E                     
   767                           	psect	cinit
   768     07ED                     start_initialization:	
   769                           ; #config settings
   770                           
   771     07ED                     __initialization:
   772                           
   773                           ; Initialize objects allocated to BANK0
   774     07ED  120A  118A  2005  120A  118A  	fcall	__pidataBANK0	;fetch initializer
   775     07F2  00D1               	movwf	__pdataBANK0& (0+127)
   776                           
   777                           ; Clear objects allocated to BANK0
   778     07F3  1383               	bcf	3,7	;select IRP bank0
   779     07F4  3020               	movlw	low __pbssBANK0
   780     07F5  0084               	movwf	4
   781     07F6  3044               	movlw	low (__pbssBANK0+36)
   782     07F7  120A  158A  25CB  120A  118A  	fcall	clear_ram0
   783     07FC                     end_of_initialization:	
   784                           ;End of C runtime variable initialization code
   785                           
   786     07FC                     __end_of__initialization:
   787     07FC  0183               	clrf	3
   788     07FD  120A  118A  2AF2   	ljmp	_main	;jump to C main() function
   789                           
   790                           	psect	bssBANK0
   791     0020                     __pbssBANK0:
   792     0020                     set_temp@temp:
   793     0020                     	ds	2
   794     0022                     set_temp@key_count:
   795     0022                     	ds	2
   796     0024                     set_temp@wait:
   797     0024                     	ds	2
   798     0026                     set_temp@blink:
   799     0026                     	ds	2
   800     0028                     set_time@key_count:
   801     0028                     	ds	2
   802     002A                     set_time@blink_pos:
   803     002A                     	ds	2
   804     002C                     set_time@wait:
   805     002C                     	ds	2
   806     002E                     set_time@blink:
   807     002E                     	ds	2
   808     0030                     _heat_flag:
   809     0030                     	ds	2
   810     0032                     _flag:
   811     0032                     	ds	2
   812     0034                     _ret:
   813     0034                     	ds	2
   814     0036                     _sec:
   815     0036                     	ds	2
   816     0038                     _min:
   817     0038                     	ds	2
   818     003A                     _reset_flag:
   819     003A                     	ds	2
   820     003C                     _operation_mode:
   821     003C                     	ds	2
   822     003E                     _min_array:
   823     003E                     	ds	3
   824     0041                     _sec_array:
   825     0041                     	ds	3
   826                           
   827                           	psect	dataBANK0
   828     0051                     __pdataBANK0:
   829     0051                     read_matrix_keypad@once:
   830     0051                     	ds	1
   831                           
   832                           	psect	clrtext
   833     0DCB                     clear_ram0:	
   834                           ;	Called with FSR containing the base address, and
   835                           ;	W with the last address+1
   836                           
   837     0DCB  0064               	clrwdt	;clear the watchdog before getting into this loop
   838     0DCC                     clrloop0:
   839     0DCC  0180               	clrf	0	;clear RAM location pointed to by FSR
   840     0DCD  0A84               	incf	4,f	;increment pointer
   841     0DCE  0604               	xorwf	4,w	;XOR with final address
   842     0DCF  1903               	btfsc	3,2	;have we reached the end yet?
   843     0DD0  3400               	retlw	0	;all done for this memory range, return
   844     0DD1  0604               	xorwf	4,w	;XOR again to restore value
   845     0DD2  2DCC               	goto	clrloop0	;do the next byte
   846                           
   847                           	psect	cstackCOMMON
   848     0070                     __pcstackCOMMON:
   849     0070                     ?_init_clcd:
   850     0070                     ?_init_matrix_keypad:	
   851                           ; 1 bytes @ 0x0
   852                           
   853     0070                     ??_init_matrix_keypad:	
   854                           ; 1 bytes @ 0x0
   855                           
   856     0070                     ?_init_timer2:	
   857                           ; 1 bytes @ 0x0
   858                           
   859     0070                     ??_init_timer2:	
   860                           ; 1 bytes @ 0x0
   861                           
   862     0070                     ?_power_on_screen:	
   863                           ; 1 bytes @ 0x0
   864                           
   865     0070                     ?_clear_display:	
   866                           ; 1 bytes @ 0x0
   867                           
   868     0070                     ?_read_matrix_keypad:	
   869                           ; 1 bytes @ 0x0
   870                           
   871     0070                     ?_clcd_write:	
   872                           ; 1 bytes @ 0x0
   873                           
   874     0070                     ?_opearation_call:	
   875                           ; 1 bytes @ 0x0
   876                           
   877     0070                     ?_cooking_mode_display:	
   878                           ; 1 bytes @ 0x0
   879                           
   880     0070                     ?_time_display:	
   881                           ; 1 bytes @ 0x0
   882                           
   883     0070                     ?_set_time:	
   884                           ; 1 bytes @ 0x0
   885                           
   886     0070                     ?_set_temp:	
   887                           ; 1 bytes @ 0x0
   888                           
   889     0070                     ?_init_config:	
   890                           ; 1 bytes @ 0x0
   891                           
   892     0070                     ?_main:	
   893                           ; 1 bytes @ 0x0
   894                           
   895     0070                     ?_door_status_check:	
   896                           ; 1 bytes @ 0x0
   897                           
   898     0070                     ?_init_display_controller:	
   899                           ; 1 bytes @ 0x0
   900                           
   901     0070                     ?_scan_keypad:	
   902                           ; 1 bytes @ 0x0
   903                           
   904     0070                     ??_scan_keypad:	
   905                           ; 1 bytes @ 0x0
   906                           
   907     0070                     ?___wmul:	
   908                           ; 1 bytes @ 0x0
   909                           
   910     0070                     ?___awdiv:	
   911                           ; 2 bytes @ 0x0
   912                           
   913     0070                     clcd_write@mode:	
   914                           ; 2 bytes @ 0x0
   915                           
   916     0070                     scan_keypad@i:	
   917                           ; 1 bytes @ 0x0
   918                           
   919     0070                     ___wmul@multiplier:	
   920                           ; 2 bytes @ 0x0
   921                           
   922     0070                     ___awdiv@divisor:	
   923                           ; 2 bytes @ 0x0
   924                           
   925                           
   926                           ; 2 bytes @ 0x0
   927     0070                     	ds	1
   928     0071                     ??_clcd_write:
   929                           
   930                           ; 1 bytes @ 0x1
   931     0071                     	ds	1
   932     0072                     ??_read_matrix_keypad:
   933     0072                     read_matrix_keypad@mode:	
   934                           ; 1 bytes @ 0x2
   935                           
   936     0072                     ___wmul@multiplicand:	
   937                           ; 1 bytes @ 0x2
   938                           
   939     0072                     ___awdiv@dividend:	
   940                           ; 2 bytes @ 0x2
   941                           
   942                           
   943                           ; 2 bytes @ 0x2
   944     0072                     	ds	1
   945     0073                     clcd_write@byte:
   946     0073                     read_matrix_keypad@key:	
   947                           ; 1 bytes @ 0x3
   948                           
   949                           
   950                           ; 1 bytes @ 0x3
   951     0073                     	ds	1
   952     0074                     ??_clear_display:
   953     0074                     ?_clcd_print:	
   954                           ; 1 bytes @ 0x4
   955                           
   956     0074                     ??_init_display_controller:	
   957                           ; 1 bytes @ 0x4
   958                           
   959     0074                     ??___wmul:	
   960                           ; 1 bytes @ 0x4
   961                           
   962     0074                     ??___awdiv:	
   963                           ; 1 bytes @ 0x4
   964                           
   965     0074                     ___awdiv@counter:	
   966                           ; 1 bytes @ 0x4
   967                           
   968     0074                     clcd_print@str:	
   969                           ; 1 bytes @ 0x4
   970                           
   971     0074                     ___wmul@product:	
   972                           ; 2 bytes @ 0x4
   973                           
   974                           
   975                           ; 2 bytes @ 0x4
   976     0074                     	ds	1
   977     0075                     ___awdiv@sign:
   978                           
   979                           ; 1 bytes @ 0x5
   980     0075                     	ds	1
   981     0076                     ??_init_clcd:
   982     0076                     ??_init_config:	
   983                           ; 1 bytes @ 0x6
   984                           
   985     0076                     clcd_print@addr:	
   986                           ; 1 bytes @ 0x6
   987                           
   988     0076                     ___awdiv@quotient:	
   989                           ; 1 bytes @ 0x6
   990                           
   991                           
   992                           ; 2 bytes @ 0x6
   993     0076                     	ds	1
   994     0077                     ??_clcd_print:
   995     0077                     ??_cooking_mode_display:	
   996                           ; 1 bytes @ 0x7
   997                           
   998     0077                     ??_door_status_check:	
   999                           ; 1 bytes @ 0x7
  1000                           
  1001                           
  1002                           ; 1 bytes @ 0x7
  1003     0077                     	ds	1
  1004     0078                     ?___awmod:
  1005     0078                     ___awmod@divisor:	
  1006                           ; 2 bytes @ 0x8
  1007                           
  1008                           
  1009                           ; 2 bytes @ 0x8
  1010     0078                     	ds	2
  1011     007A                     ___awmod@dividend:
  1012                           
  1013                           ; 2 bytes @ 0xA
  1014     007A                     	ds	2
  1015     007C                     ??___awmod:
  1016     007C                     ___awmod@counter:	
  1017                           ; 1 bytes @ 0xC
  1018                           
  1019                           
  1020                           ; 1 bytes @ 0xC
  1021     007C                     	ds	1
  1022     007D                     ___awmod@sign:
  1023                           
  1024                           ; 1 bytes @ 0xD
  1025     007D                     	ds	1
  1026     007E                     ??_clcd_putch:
  1027                           
  1028                           	psect	cstackBANK0
  1029     0044                     __pcstackBANK0:	
  1030                           ; 1 bytes @ 0xE
  1031                           
  1032     0044                     ??_set_time:
  1033     0044                     ?_clcd_putch:	
  1034                           ; 1 bytes @ 0x0
  1035                           
  1036     0044                     clcd_putch@addr:	
  1037                           ; 1 bytes @ 0x0
  1038                           
  1039                           
  1040                           ; 1 bytes @ 0x0
  1041     0044                     	ds	1
  1042     0045                     clcd_putch@data:
  1043                           
  1044                           ; 1 bytes @ 0x1
  1045     0045                     	ds	1
  1046     0046                     ??_power_on_screen:
  1047     0046                     ??_time_display:	
  1048                           ; 1 bytes @ 0x2
  1049                           
  1050     0046                     ??_set_temp:	
  1051                           ; 1 bytes @ 0x2
  1052                           
  1053     0046                     set_time@key:	
  1054                           ; 1 bytes @ 0x2
  1055                           
  1056                           
  1057                           ; 1 bytes @ 0x2
  1058     0046                     	ds	3
  1059     0049                     set_temp@key:
  1060     0049                     power_on_screen@i:	
  1061                           ; 1 bytes @ 0x5
  1062                           
  1063                           
  1064                           ; 2 bytes @ 0x5
  1065     0049                     	ds	1
  1066     004A                     ??_opearation_call:
  1067                           
  1068                           ; 1 bytes @ 0x6
  1069     004A                     	ds	1
  1070     004B                     power_on_screen@i_126:
  1071                           
  1072                           ; 2 bytes @ 0x7
  1073     004B                     	ds	1
  1074     004C                     opearation_call@key:
  1075                           
  1076                           ; 1 bytes @ 0x8
  1077     004C                     	ds	1
  1078     004D                     ??_main:
  1079                           
  1080                           ; 1 bytes @ 0x9
  1081     004D                     	ds	3
  1082     0050                     main@key:
  1083                           
  1084                           ; 1 bytes @ 0xC
  1085     0050                     	ds	1
  1086                           
  1087                           	psect	maintext
  1088     02F2                     __pmaintext:	
  1089 ;;
  1090 ;;Main: autosize = 0, tempsize = 3, incstack = 0, save=0
  1091 ;;
  1092 ;; *************** function _main *****************
  1093 ;; Defined at:
  1094 ;;		line 34 in file "main.c"
  1095 ;; Parameters:    Size  Location     Type
  1096 ;;		None
  1097 ;; Auto vars:     Size  Location     Type
  1098 ;;  key             1   12[BANK0 ] unsigned char 
  1099 ;; Return value:  Size  Location     Type
  1100 ;;                  1    wreg      void 
  1101 ;; Registers used:
  1102 ;;		wreg, fsr0l, fsr0h, status,2, status,0, btemp+1, pclath, cstack
  1103 ;; Tracked objects:
  1104 ;;		On entry : B00/0
  1105 ;;		On exit  : 0/0
  1106 ;;		Unchanged: 0/0
  1107 ;; Data sizes:     COMMON   BANK0   BANK1   BANK3   BANK2
  1108 ;;      Params:         0       0       0       0       0
  1109 ;;      Locals:         0       1       0       0       0
  1110 ;;      Temps:          0       3       0       0       0
  1111 ;;      Totals:         0       4       0       0       0
  1112 ;;Total ram usage:        4 bytes
  1113 ;; Hardware stack levels required when called: 5
  1114 ;; This function calls:
  1115 ;;		_clcd_print
  1116 ;;		_clcd_write
  1117 ;;		_clear_display
  1118 ;;		_init_config
  1119 ;;		_opearation_call
  1120 ;;		_power_on_screen
  1121 ;;		_read_matrix_keypad
  1122 ;; This function is called by:
  1123 ;;		Startup code after reset
  1124 ;; This function uses a non-reentrant model
  1125 ;;
  1126                           
  1127     02F2                     _main:	
  1128                           ;psect for function _main
  1129                           
  1130     02F2                     l2386:	
  1131                           ;incstack = 0
  1132                           ; Regs used in _main: [wreg-fsr0h+status,2+status,0+btemp+1+pclath+cstack]
  1133                           
  1134                           
  1135                           ;main.c: 35:           operation_mode = 0x02;;main.c: 36:           reset_flag = 0X11;
  1136     02F2  120A  158A  2610  120A  118A  	fcall	_init_config
  1137     02F7                     l2388:
  1138                           
  1139                           ;main.c: 37:           clcd_write(0x0C, 0);
  1140     02F7  120A  118A  205F  120A  118A  	fcall	_power_on_screen
  1141     02FC                     l2390:
  1142                           
  1143                           ;main.c: 38:           clear_display();
  1144     02FC  120A  158A  25C3  120A  118A  	fcall	_clear_display
  1145     0301                     l2392:
  1146                           
  1147                           ;main.c: 39:           clcd_print(" Power = 900W", (0xC0 + 0));
  1148     0301  3001               	movlw	1
  1149     0302  1283               	bcf	3,5	;RP0=0, select bank0
  1150     0303  1303               	bcf	3,6	;RP1=0, select bank0
  1151     0304  00BC               	movwf	_operation_mode
  1152     0305  3000               	movlw	0
  1153     0306  00BD               	movwf	_operation_mode+1
  1154     0307                     l2394:
  1155                           
  1156                           ;main.c: 42:         }
  1157     0307  3001               	movlw	1
  1158     0308  120A  158A  2653  120A  118A  	fcall	_read_matrix_keypad
  1159     030D  1283               	bcf	3,5	;RP0=0, select bank0
  1160     030E  1303               	bcf	3,6	;RP1=0, select bank0
  1161     030F  00D0               	movwf	main@key
  1162     0310                     l2396:
  1163                           
  1164                           ;main.c: 43: 
  1165     0310  3002               	movlw	2
  1166     0311  063C               	xorwf	_operation_mode,w
  1167     0312  043D               	iorwf	_operation_mode+1,w
  1168     0313  1903               	btfsc	3,2
  1169     0314  2B16               	goto	u1981
  1170     0315  2B17               	goto	u1980
  1171     0316                     u1981:
  1172     0316  2BE8               	goto	l2470
  1173     0317                     u1980:
  1174     0317                     l2398:
  1175     0317  3003               	movlw	3
  1176     0318  063C               	xorwf	_operation_mode,w
  1177     0319  043D               	iorwf	_operation_mode+1,w
  1178     031A  1903               	btfsc	3,2
  1179     031B  2B1D               	goto	u1991
  1180     031C  2B1E               	goto	u1990
  1181     031D                     u1991:
  1182     031D  2BE8               	goto	l2470
  1183     031E                     u1990:
  1184     031E                     l2400:
  1185     031E  3004               	movlw	4
  1186     031F  063C               	xorwf	_operation_mode,w
  1187     0320  043D               	iorwf	_operation_mode+1,w
  1188     0321  1D03               	btfss	3,2
  1189     0322  2B24               	goto	u2001
  1190     0323  2B25               	goto	u2000
  1191     0324                     u2001:
  1192     0324  2B27               	goto	l2402
  1193     0325                     u2000:
  1194     0325  2BE8               	goto	l2470
  1195     0326                     l75:
  1196                           
  1197                           ;main.c: 44:         else if(key == 2);main.c: 46:             operation_mode = 0x03;
  1198     0326  2BE8               	goto	l2470
  1199     0327                     l2402:
  1200     0327  0350               	decf	main@key,w
  1201     0328  1D03               	btfss	3,2
  1202     0329  2B2B               	goto	u2011
  1203     032A  2B2C               	goto	u2010
  1204     032B                     u2011:
  1205     032B  2B5F               	goto	l2416
  1206     032C                     u2010:
  1207     032C                     l2404:
  1208                           
  1209                           ;main.c: 48:             clear_display();;main.c: 49:         }
  1210     032C  3002               	movlw	2
  1211     032D  00BC               	movwf	_operation_mode
  1212     032E  3000               	movlw	0
  1213     032F  00BD               	movwf	_operation_mode+1
  1214                           
  1215                           ;main.c: 50: 
  1216     0330  3011               	movlw	17
  1217     0331  00BA               	movwf	_reset_flag
  1218     0332  3000               	movlw	0
  1219     0333  00BB               	movwf	_reset_flag+1
  1220     0334                     l2406:
  1221                           
  1222                           ;main.c: 51:         else if(key == 3)
  1223     0334  01F0               	clrf	clcd_write@mode
  1224     0335  300C               	movlw	12
  1225     0336  120A  158A  26D6  120A  118A  	fcall	_clcd_write
  1226     033B                     l2408:
  1227                           
  1228                           ;main.c: 52:         {
  1229     033B  120A  158A  25C3  120A  118A  	fcall	_clear_display
  1230     0340                     l2410:
  1231                           
  1232                           ;main.c: 53:             operation_mode = 0x04;
  1233     0340  30C2               	movlw	low (STR_1| (0+32768))
  1234     0341  00F4               	movwf	clcd_print@str
  1235     0342  3088               	movlw	high (STR_1| (0+32768))
  1236     0343  00F5               	movwf	clcd_print@str+1
  1237     0344  30C0               	movlw	192
  1238     0345  00F6               	movwf	clcd_print@addr
  1239     0346  120A  158A  26A7  120A  118A  	fcall	_clcd_print
  1240     034B                     l2412:
  1241                           
  1242                           ;main.c: 54:             reset_flag = 0X14;
  1243     034B  304D               	movlw	77
  1244     034C  1283               	bcf	3,5	;RP0=0, select bank0
  1245     034D  1303               	bcf	3,6	;RP1=0, select bank0
  1246     034E  00CF               	movwf	??_main+2
  1247     034F  3019               	movlw	25
  1248     0350  00CE               	movwf	??_main+1
  1249     0351  304F               	movlw	79
  1250     0352  00CD               	movwf	??_main
  1251     0353                     u2117:
  1252     0353  0BCD               	decfsz	??_main,f
  1253     0354  2B53               	goto	u2117
  1254     0355  0BCE               	decfsz	??_main+1,f
  1255     0356  2B53               	goto	u2117
  1256     0357  0BCF               	decfsz	??_main+2,f
  1257     0358  2B53               	goto	u2117
  1258     0359                     l2414:
  1259                           
  1260                           ;main.c: 55:             clear_display();
  1261     0359  120A  158A  25C3  120A  118A  	fcall	_clear_display
  1262                           
  1263                           ;main.c: 56:         }
  1264     035E  2BE8               	goto	l2470
  1265     035F                     l2416:
  1266     035F  3002               	movlw	2
  1267     0360  0650               	xorwf	main@key,w
  1268     0361  1D03               	btfss	3,2
  1269     0362  2B64               	goto	u2021
  1270     0363  2B65               	goto	u2020
  1271     0364                     u2021:
  1272     0364  2B6E               	goto	l2422
  1273     0365                     u2020:
  1274     0365                     l2418:
  1275                           
  1276                           ;main.c: 59:         {;main.c: 60:             if(operation_mode == 0x01)
  1277     0365  3003               	movlw	3
  1278     0366  00BC               	movwf	_operation_mode
  1279     0367  3000               	movlw	0
  1280     0368  00BD               	movwf	_operation_mode+1
  1281                           
  1282                           ;main.c: 61:             {
  1283     0369  3012               	movlw	18
  1284     036A  00BA               	movwf	_reset_flag
  1285     036B  3000               	movlw	0
  1286     036C  00BB               	movwf	_reset_flag+1
  1287     036D  2B59               	goto	l2414
  1288     036E                     l2422:
  1289     036E  3003               	movlw	3
  1290     036F  0650               	xorwf	main@key,w
  1291     0370  1D03               	btfss	3,2
  1292     0371  2B73               	goto	u2031
  1293     0372  2B74               	goto	u2030
  1294     0373                     u2031:
  1295     0373  2B7D               	goto	l2428
  1296     0374                     u2030:
  1297     0374                     l2424:
  1298                           
  1299                           ;main.c: 66:                 operation_mode = 0x06;;main.c: 67: 
  1300     0374  3004               	movlw	4
  1301     0375  00BC               	movwf	_operation_mode
  1302     0376  3000               	movlw	0
  1303     0377  00BD               	movwf	_operation_mode+1
  1304                           
  1305                           ;main.c: 68:             }
  1306     0378  3014               	movlw	20
  1307     0379  00BA               	movwf	_reset_flag
  1308     037A  3000               	movlw	0
  1309     037B  00BB               	movwf	_reset_flag+1
  1310     037C  2B59               	goto	l2414
  1311     037D                     l2428:
  1312     037D  3004               	movlw	4
  1313     037E  0650               	xorwf	main@key,w
  1314     037F  1D03               	btfss	3,2
  1315     0380  2B82               	goto	u2041
  1316     0381  2B83               	goto	u2040
  1317     0382                     u2041:
  1318     0382  2BD1               	goto	l2458
  1319     0383                     u2040:
  1320     0383                     l2430:
  1321                           
  1322                           ;main.c: 73:                 {;main.c: 74:                     min++;
  1323     0383  033C               	decf	_operation_mode,w
  1324     0384  043D               	iorwf	_operation_mode+1,w
  1325     0385  1D03               	btfss	3,2
  1326     0386  2B88               	goto	u2051
  1327     0387  2B89               	goto	u2050
  1328     0388                     u2051:
  1329     0388  2B96               	goto	l2442
  1330     0389                     u2050:
  1331     0389                     l2432:
  1332                           
  1333                           ;main.c: 75:                     sec = sec - 60;;main.c: 76:                 }
  1334     0389  01B8               	clrf	_min
  1335     038A  01B9               	clrf	_min+1
  1336     038B                     l2434:
  1337                           
  1338                           ;main.c: 77:             }
  1339     038B  301E               	movlw	30
  1340     038C  00B6               	movwf	_sec
  1341     038D  3000               	movlw	0
  1342     038E  00B7               	movwf	_sec+1
  1343     038F                     l2436:
  1344                           
  1345                           ;main.c: 78:             else if(operation_mode == 0x08)
  1346     038F  1512               	bsf	18,2	;volatile
  1347     0390                     l2438:
  1348                           
  1349                           ;main.c: 79:             {
  1350     0390  1507               	bsf	7,2	;volatile
  1351     0391                     l2440:
  1352                           
  1353                           ;main.c: 80:                 TMR2ON = 1;
  1354     0391  3006               	movlw	6
  1355     0392  00BC               	movwf	_operation_mode
  1356     0393  3000               	movlw	0
  1357     0394  00BD               	movwf	_operation_mode+1
  1358                           
  1359                           ;main.c: 82:                 operation_mode = 0x05;
  1360     0395  2BE8               	goto	l2470
  1361     0396                     l2442:
  1362     0396  3006               	movlw	6
  1363     0397  063C               	xorwf	_operation_mode,w
  1364     0398  043D               	iorwf	_operation_mode+1,w
  1365     0399  1D03               	btfss	3,2
  1366     039A  2B9C               	goto	u2061
  1367     039B  2B9D               	goto	u2060
  1368     039C                     u2061:
  1369     039C  2BC3               	goto	l2452
  1370     039D                     u2060:
  1371     039D                     l2444:
  1372                           
  1373                           ;main.c: 84:         };main.c: 85:         else if(key == 5)
  1374     039D  0836               	movf	_sec,w
  1375     039E  3E1E               	addlw	30
  1376     039F  00B6               	movwf	_sec
  1377     03A0  0837               	movf	_sec+1,w
  1378     03A1  1803               	skipnc
  1379     03A2  3E01               	addlw	1
  1380     03A3  3E00               	addlw	0
  1381     03A4  00B7               	movwf	_sec+1
  1382     03A5                     l2446:
  1383                           
  1384                           ;main.c: 86:         {
  1385     03A5  0837               	movf	_sec+1,w
  1386     03A6  3A80               	xorlw	128
  1387     03A7  00FF               	movwf	btemp+1
  1388     03A8  3080               	movlw	128
  1389     03A9  027F               	subwf	btemp+1,w
  1390     03AA  1D03               	skipz
  1391     03AB  2BAE               	goto	u2075
  1392     03AC  303C               	movlw	60
  1393     03AD  0236               	subwf	_sec,w
  1394     03AE                     u2075:
  1395     03AE  1C03               	skipc
  1396     03AF  2BB1               	goto	u2071
  1397     03B0  2BB2               	goto	u2070
  1398     03B1                     u2071:
  1399     03B1  2B26               	goto	l75
  1400     03B2                     u2070:
  1401     03B2                     l2448:
  1402                           
  1403                           ;main.c: 87:             operation_mode = 0x08;;main.c: 88:             RC2 = 0;
  1404     03B2  3001               	movlw	1
  1405     03B3  1283               	bcf	3,5	;RP0=0, select bank0
  1406     03B4  1303               	bcf	3,6	;RP1=0, select bank0
  1407     03B5  07B8               	addwf	_min,f
  1408     03B6  1803               	skipnc
  1409     03B7  0AB9               	incf	_min+1,f
  1410     03B8  3000               	movlw	0
  1411     03B9  07B9               	addwf	_min+1,f
  1412     03BA                     l2450:
  1413                           
  1414                           ;main.c: 89: 
  1415     03BA  0836               	movf	_sec,w
  1416     03BB  3EC4               	addlw	196
  1417     03BC  00B6               	movwf	_sec
  1418     03BD  0837               	movf	_sec+1,w
  1419     03BE  1803               	skipnc
  1420     03BF  3E01               	addlw	1
  1421     03C0  3EFF               	addlw	255
  1422     03C1  00B7               	movwf	_sec+1
  1423     03C2  2BE8               	goto	l2470
  1424     03C3                     l2452:
  1425     03C3  3008               	movlw	8
  1426     03C4  063C               	xorwf	_operation_mode,w
  1427     03C5  043D               	iorwf	_operation_mode+1,w
  1428     03C6  1D03               	btfss	3,2
  1429     03C7  2BC9               	goto	u2081
  1430     03C8  2BCA               	goto	u2080
  1431     03C9                     u2081:
  1432     03C9  2B26               	goto	l75
  1433     03CA                     u2080:
  1434     03CA                     l2454:
  1435                           
  1436                           ;main.c: 93:             operation_mode = 0x07;;main.c: 94:             clear_display();
  1437     03CA  1512               	bsf	18,2	;volatile
  1438                           
  1439                           ;main.c: 95: 
  1440     03CB  1507               	bsf	7,2	;volatile
  1441     03CC                     l2456:
  1442                           
  1443                           ;main.c: 96:         }
  1444     03CC  3005               	movlw	5
  1445     03CD  00BC               	movwf	_operation_mode
  1446     03CE  3000               	movlw	0
  1447     03CF  00BD               	movwf	_operation_mode+1
  1448     03D0  2BE8               	goto	l2470
  1449     03D1                     l2458:
  1450     03D1  3005               	movlw	5
  1451     03D2  0650               	xorwf	main@key,w
  1452     03D3  1D03               	btfss	3,2
  1453     03D4  2BD6               	goto	u2091
  1454     03D5  2BD7               	goto	u2090
  1455     03D6                     u2091:
  1456     03D6  2BDD               	goto	l2464
  1457     03D7                     u2090:
  1458     03D7                     l2460:
  1459                           
  1460                           ;main.c: 100: };main.c: 101: 
  1461     03D7  3008               	movlw	8
  1462     03D8  00BC               	movwf	_operation_mode
  1463     03D9  3000               	movlw	0
  1464     03DA  00BD               	movwf	_operation_mode+1
  1465     03DB                     l2462:
  1466                           
  1467                           ;main.c: 102: void opearation_call(unsigned char key)
  1468     03DB  1107               	bcf	7,2	;volatile
  1469                           
  1470                           ;main.c: 104:     switch(operation_mode)
  1471     03DC  2BE8               	goto	l2470
  1472     03DD                     l2464:
  1473     03DD  3006               	movlw	6
  1474     03DE  0650               	xorwf	main@key,w
  1475     03DF  1D03               	btfss	3,2
  1476     03E0  2BE2               	goto	u2101
  1477     03E1  2BE3               	goto	u2100
  1478     03E2                     u2101:
  1479     03E2  2B26               	goto	l75
  1480     03E3                     u2100:
  1481     03E3                     l2466:
  1482                           
  1483                           ;main.c: 106:         case 0x01:;main.c: 107:             cooking_mode_display();
  1484     03E3  3007               	movlw	7
  1485     03E4  00BC               	movwf	_operation_mode
  1486     03E5  3000               	movlw	0
  1487     03E6  00BD               	movwf	_operation_mode+1
  1488     03E7  2B59               	goto	l2414
  1489     03E8                     l2470:
  1490                           
  1491                           ;main.c: 111:             time_display();
  1492     03E8  1283               	bcf	3,5	;RP0=0, select bank0
  1493     03E9  1303               	bcf	3,6	;RP1=0, select bank0
  1494     03EA  0850               	movf	main@key,w
  1495     03EB  120A  118A  20CD  120A  118A  	fcall	_opearation_call
  1496     03F0  2B07               	goto	l2394
  1497     03F1  120A  118A  2800   	ljmp	start
  1498     03F4                     __end_of_main:
  1499                           
  1500                           	psect	text1
  1501     0E53                     __ptext1:	
  1502 ;; *************** function _read_matrix_keypad *****************
  1503 ;; Defined at:
  1504 ;;		line 116 in file "matrix_keypad.c"
  1505 ;; Parameters:    Size  Location     Type
  1506 ;;  mode            1    wreg     unsigned char 
  1507 ;; Auto vars:     Size  Location     Type
  1508 ;;  mode            1    2[COMMON] unsigned char 
  1509 ;;  key             1    3[COMMON] unsigned char 
  1510 ;; Return value:  Size  Location     Type
  1511 ;;                  1    wreg      unsigned char 
  1512 ;; Registers used:
  1513 ;;		wreg, status,2, status,0, pclath, cstack
  1514 ;; Tracked objects:
  1515 ;;		On entry : 0/0
  1516 ;;		On exit  : 0/0
  1517 ;;		Unchanged: 0/0
  1518 ;; Data sizes:     COMMON   BANK0   BANK1   BANK3   BANK2
  1519 ;;      Params:         0       0       0       0       0
  1520 ;;      Locals:         2       0       0       0       0
  1521 ;;      Temps:          0       0       0       0       0
  1522 ;;      Totals:         2       0       0       0       0
  1523 ;;Total ram usage:        2 bytes
  1524 ;; Hardware stack levels used: 1
  1525 ;; Hardware stack levels required when called: 1
  1526 ;; This function calls:
  1527 ;;		_scan_keypad
  1528 ;; This function is called by:
  1529 ;;		_main
  1530 ;; This function uses a non-reentrant model
  1531 ;;
  1532                           
  1533     0E53                     _read_matrix_keypad:	
  1534                           ;psect for function _read_matrix_keypad
  1535                           
  1536                           
  1537                           ;incstack = 0
  1538                           ; Regs used in _read_matrix_keypad: [wreg+status,2+status,0+pclath+cstack]
  1539                           ;read_matrix_keypad@mode stored from wreg
  1540     0E53  00F2               	movwf	read_matrix_keypad@mode
  1541     0E54                     l2306:
  1542                           
  1543                           ;matrix_keypad.c: 116: unsigned char read_matrix_keypad(unsigned char mode);matrix_keypa
      +                          d.c: 117: {;matrix_keypad.c: 118:     static unsigned char once = 1;;matrix_keypad.c: 11
      +                          9:     unsigned char key;;matrix_keypad.c: 121:     key = scan_keypad();
  1544     0E54  120A  118A  2169  120A  158A  	fcall	_scan_keypad
  1545     0E59  00F3               	movwf	read_matrix_keypad@key
  1546     0E5A                     l2308:
  1547                           
  1548                           ;matrix_keypad.c: 123:     if (mode == 0)
  1549     0E5A  0872               	movf	read_matrix_keypad@mode,w
  1550     0E5B  1D03               	btfss	3,2
  1551     0E5C  2E5E               	goto	u1901
  1552     0E5D  2E5F               	goto	u1900
  1553     0E5E                     u1901:
  1554     0E5E  2E61               	goto	l2316
  1555     0E5F                     u1900:
  1556     0E5F                     l2310:
  1557                           
  1558                           ;matrix_keypad.c: 124:     {;matrix_keypad.c: 125:         return key;
  1559     0E5F  0873               	movf	read_matrix_keypad@key,w
  1560     0E60  2E79               	goto	l293
  1561     0E61                     l2316:
  1562                           
  1563                           ;matrix_keypad.c: 128:     {;matrix_keypad.c: 129:         if ((key != 0xFF) && once)
  1564     0E61  0A73               	incf	read_matrix_keypad@key,w
  1565     0E62  1903               	btfsc	3,2
  1566     0E63  2E65               	goto	u1911
  1567     0E64  2E66               	goto	u1910
  1568     0E65                     u1911:
  1569     0E65  2E6F               	goto	l2328
  1570     0E66                     u1910:
  1571     0E66                     l2318:
  1572     0E66  1283               	bcf	3,5	;RP0=0, select bank0
  1573     0E67  1303               	bcf	3,6	;RP1=0, select bank0
  1574     0E68  0851               	movf	read_matrix_keypad@once,w
  1575     0E69  1903               	btfsc	3,2
  1576     0E6A  2E6C               	goto	u1921
  1577     0E6B  2E6D               	goto	u1920
  1578     0E6C                     u1921:
  1579     0E6C  2E6F               	goto	l2328
  1580     0E6D                     u1920:
  1581     0E6D                     l2320:
  1582                           
  1583                           ;matrix_keypad.c: 130:         {;matrix_keypad.c: 131:             once = 0;
  1584     0E6D  01D1               	clrf	read_matrix_keypad@once
  1585     0E6E  2E5F               	goto	l2310
  1586     0E6F                     l2328:
  1587     0E6F  0A73               	incf	read_matrix_keypad@key,w
  1588     0E70  1D03               	btfss	3,2
  1589     0E71  2E73               	goto	u1931
  1590     0E72  2E74               	goto	u1930
  1591     0E73                     u1931:
  1592     0E73  2E78               	goto	l2332
  1593     0E74                     u1930:
  1594     0E74                     l2330:
  1595                           
  1596                           ;matrix_keypad.c: 136:         {;matrix_keypad.c: 137:             once = 1;
  1597     0E74  1283               	bcf	3,5	;RP0=0, select bank0
  1598     0E75  1303               	bcf	3,6	;RP1=0, select bank0
  1599     0E76  01D1               	clrf	read_matrix_keypad@once
  1600     0E77  0AD1               	incf	read_matrix_keypad@once,f
  1601     0E78                     l2332:
  1602                           
  1603                           ;matrix_keypad.c: 141:     return 0xFF;
  1604     0E78  30FF               	movlw	255
  1605     0E79                     l293:
  1606     0E79  0008               	return
  1607     0E7A                     __end_of_read_matrix_keypad:
  1608                           
  1609                           	psect	text2
  1610     0169                     __ptext2:	
  1611 ;; *************** function _scan_keypad *****************
  1612 ;; Defined at:
  1613 ;;		line 29 in file "matrix_keypad.c"
  1614 ;; Parameters:    Size  Location     Type
  1615 ;;		None
  1616 ;; Auto vars:     Size  Location     Type
  1617 ;;  i               2    0[COMMON] int 
  1618 ;; Return value:  Size  Location     Type
  1619 ;;                  1    wreg      unsigned char 
  1620 ;; Registers used:
  1621 ;;		wreg, status,2, status,0
  1622 ;; Tracked objects:
  1623 ;;		On entry : 0/0
  1624 ;;		On exit  : 0/0
  1625 ;;		Unchanged: 0/0
  1626 ;; Data sizes:     COMMON   BANK0   BANK1   BANK3   BANK2
  1627 ;;      Params:         0       0       0       0       0
  1628 ;;      Locals:         2       0       0       0       0
  1629 ;;      Temps:          0       0       0       0       0
  1630 ;;      Totals:         2       0       0       0       0
  1631 ;;Total ram usage:        2 bytes
  1632 ;; Hardware stack levels used: 1
  1633 ;; This function calls:
  1634 ;;		Nothing
  1635 ;; This function is called by:
  1636 ;;		_read_matrix_keypad
  1637 ;; This function uses a non-reentrant model
  1638 ;;
  1639                           
  1640     0169                     _scan_keypad:	
  1641                           ;psect for function _scan_keypad
  1642                           
  1643     0169                     l2178:	
  1644                           ;incstack = 0
  1645                           ; Regs used in _scan_keypad: [wreg+status,2+status,0]
  1646                           
  1647                           
  1648                           ;matrix_keypad.c: 31:     int i;;matrix_keypad.c: 33:     RD3 = 0;
  1649     0169  1283               	bcf	3,5	;RP0=0, select bank0
  1650     016A  1303               	bcf	3,6	;RP1=0, select bank0
  1651     016B  1188               	bcf	8,3	;volatile
  1652                           
  1653                           ;matrix_keypad.c: 34:     RD2 = 1;
  1654     016C  1508               	bsf	8,2	;volatile
  1655                           
  1656                           ;matrix_keypad.c: 35:     RD1 = 1;
  1657     016D  1488               	bsf	8,1	;volatile
  1658                           
  1659                           ;matrix_keypad.c: 36:     RD0 = 1;
  1660     016E  1408               	bsf	8,0	;volatile
  1661     016F                     l2180:
  1662                           
  1663                           ;matrix_keypad.c: 38:     for (i = 100; i--; );
  1664     016F  3064               	movlw	100
  1665     0170  00F0               	movwf	scan_keypad@i
  1666     0171  3000               	movlw	0
  1667     0172  00F1               	movwf	scan_keypad@i+1
  1668     0173                     l2182:
  1669     0173  30FF               	movlw	255
  1670     0174  07F0               	addwf	scan_keypad@i,f
  1671     0175  1803               	skipnc
  1672     0176  0AF1               	incf	scan_keypad@i+1,f
  1673     0177  30FF               	movlw	255
  1674     0178  07F1               	addwf	scan_keypad@i+1,f
  1675     0179  0A70               	incf	scan_keypad@i,w
  1676     017A  1D03               	skipz
  1677     017B  2980               	goto	u1721
  1678     017C  0A71               	incf	scan_keypad@i+1,w
  1679     017D  1D03               	btfss	3,2
  1680     017E  2980               	goto	u1721
  1681     017F  2981               	goto	u1720
  1682     0180                     u1721:
  1683     0180  2973               	goto	l2182
  1684     0181                     u1720:
  1685     0181                     l257:
  1686                           
  1687                           ;matrix_keypad.c: 40:     if (RB0 == 0)
  1688     0181  1283               	bcf	3,5	;RP0=0, select bank0
  1689     0182  1303               	bcf	3,6	;RP1=0, select bank0
  1690     0183  1806               	btfsc	6,0	;volatile
  1691     0184  2986               	goto	u1731
  1692     0185  2987               	goto	u1730
  1693     0186                     u1731:
  1694     0186  2989               	goto	l258
  1695     0187                     u1730:
  1696     0187                     l2184:
  1697                           
  1698                           ;matrix_keypad.c: 41:     {;matrix_keypad.c: 42:         return 1;
  1699     0187  3001               	movlw	1
  1700     0188  2A14               	goto	l259
  1701     0189                     l258:	
  1702                           ;matrix_keypad.c: 44:     else if (RB1 == 0)
  1703                           
  1704     0189  1886               	btfsc	6,1	;volatile
  1705     018A  298C               	goto	u1741
  1706     018B  298D               	goto	u1740
  1707     018C                     u1741:
  1708     018C  298F               	goto	l261
  1709     018D                     u1740:
  1710     018D                     l2190:
  1711                           
  1712                           ;matrix_keypad.c: 45:     {;matrix_keypad.c: 46:         return 2;
  1713     018D  3002               	movlw	2
  1714     018E  2A14               	goto	l259
  1715     018F                     l261:	
  1716                           ;matrix_keypad.c: 48:     else if (RB2 == 0)
  1717                           
  1718     018F  1906               	btfsc	6,2	;volatile
  1719     0190  2992               	goto	u1751
  1720     0191  2993               	goto	u1750
  1721     0192                     u1751:
  1722     0192  2995               	goto	l260
  1723     0193                     u1750:
  1724     0193                     l2196:
  1725                           
  1726                           ;matrix_keypad.c: 49:     {;matrix_keypad.c: 50:         return 3;
  1727     0193  3003               	movlw	3
  1728     0194  2A14               	goto	l259
  1729     0195                     l260:
  1730                           
  1731                           ;matrix_keypad.c: 53:     RD3 = 1;
  1732     0195  1588               	bsf	8,3	;volatile
  1733                           
  1734                           ;matrix_keypad.c: 54:     RD2 = 0;
  1735     0196  1108               	bcf	8,2	;volatile
  1736                           
  1737                           ;matrix_keypad.c: 55:     RD1 = 1;
  1738     0197  1488               	bsf	8,1	;volatile
  1739                           
  1740                           ;matrix_keypad.c: 56:     RD0 = 1;
  1741     0198  1408               	bsf	8,0	;volatile
  1742     0199                     l2200:
  1743                           
  1744                           ;matrix_keypad.c: 58:     for (i = 100; i--; );
  1745     0199  3064               	movlw	100
  1746     019A  00F0               	movwf	scan_keypad@i
  1747     019B  3000               	movlw	0
  1748     019C  00F1               	movwf	scan_keypad@i+1
  1749     019D                     l2202:
  1750     019D  30FF               	movlw	255
  1751     019E  07F0               	addwf	scan_keypad@i,f
  1752     019F  1803               	skipnc
  1753     01A0  0AF1               	incf	scan_keypad@i+1,f
  1754     01A1  30FF               	movlw	255
  1755     01A2  07F1               	addwf	scan_keypad@i+1,f
  1756     01A3  0A70               	incf	scan_keypad@i,w
  1757     01A4  1D03               	skipz
  1758     01A5  29AA               	goto	u1761
  1759     01A6  0A71               	incf	scan_keypad@i+1,w
  1760     01A7  1D03               	btfss	3,2
  1761     01A8  29AA               	goto	u1761
  1762     01A9  29AB               	goto	u1760
  1763     01AA                     u1761:
  1764     01AA  299D               	goto	l2202
  1765     01AB                     u1760:
  1766     01AB                     l266:
  1767                           
  1768                           ;matrix_keypad.c: 60:     if (RB0 == 0)
  1769     01AB  1283               	bcf	3,5	;RP0=0, select bank0
  1770     01AC  1303               	bcf	3,6	;RP1=0, select bank0
  1771     01AD  1806               	btfsc	6,0	;volatile
  1772     01AE  29B0               	goto	u1771
  1773     01AF  29B1               	goto	u1770
  1774     01B0                     u1771:
  1775     01B0  29B3               	goto	l267
  1776     01B1                     u1770:
  1777     01B1                     l2204:
  1778                           
  1779                           ;matrix_keypad.c: 61:     {;matrix_keypad.c: 62:         return 4;
  1780     01B1  3004               	movlw	4
  1781     01B2  2A14               	goto	l259
  1782     01B3                     l267:	
  1783                           ;matrix_keypad.c: 64:     else if (RB1 == 0)
  1784                           
  1785     01B3  1886               	btfsc	6,1	;volatile
  1786     01B4  29B6               	goto	u1781
  1787     01B5  29B7               	goto	u1780
  1788     01B6                     u1781:
  1789     01B6  29B9               	goto	l269
  1790     01B7                     u1780:
  1791     01B7                     l2210:
  1792                           
  1793                           ;matrix_keypad.c: 65:     {;matrix_keypad.c: 66:         return 5;
  1794     01B7  3005               	movlw	5
  1795     01B8  2A14               	goto	l259
  1796     01B9                     l269:	
  1797                           ;matrix_keypad.c: 68:     else if (RB2 == 0)
  1798                           
  1799     01B9  1906               	btfsc	6,2	;volatile
  1800     01BA  29BC               	goto	u1791
  1801     01BB  29BD               	goto	u1790
  1802     01BC                     u1791:
  1803     01BC  29BF               	goto	l268
  1804     01BD                     u1790:
  1805     01BD                     l2216:
  1806                           
  1807                           ;matrix_keypad.c: 69:     {;matrix_keypad.c: 70:         return 6;
  1808     01BD  3006               	movlw	6
  1809     01BE  2A14               	goto	l259
  1810     01BF                     l268:
  1811                           
  1812                           ;matrix_keypad.c: 73:     RD3 = 1;
  1813     01BF  1588               	bsf	8,3	;volatile
  1814                           
  1815                           ;matrix_keypad.c: 74:     RD2 = 1;
  1816     01C0  1508               	bsf	8,2	;volatile
  1817                           
  1818                           ;matrix_keypad.c: 75:     RD1 = 0;
  1819     01C1  1088               	bcf	8,1	;volatile
  1820                           
  1821                           ;matrix_keypad.c: 76:     RD0 = 1;
  1822     01C2  1408               	bsf	8,0	;volatile
  1823     01C3                     l2220:
  1824                           
  1825                           ;matrix_keypad.c: 78:     for (i = 100; i--; );
  1826     01C3  3064               	movlw	100
  1827     01C4  00F0               	movwf	scan_keypad@i
  1828     01C5  3000               	movlw	0
  1829     01C6  00F1               	movwf	scan_keypad@i+1
  1830     01C7                     l2222:
  1831     01C7  30FF               	movlw	255
  1832     01C8  07F0               	addwf	scan_keypad@i,f
  1833     01C9  1803               	skipnc
  1834     01CA  0AF1               	incf	scan_keypad@i+1,f
  1835     01CB  30FF               	movlw	255
  1836     01CC  07F1               	addwf	scan_keypad@i+1,f
  1837     01CD  0A70               	incf	scan_keypad@i,w
  1838     01CE  1D03               	skipz
  1839     01CF  29D4               	goto	u1801
  1840     01D0  0A71               	incf	scan_keypad@i+1,w
  1841     01D1  1D03               	btfss	3,2
  1842     01D2  29D4               	goto	u1801
  1843     01D3  29D5               	goto	u1800
  1844     01D4                     u1801:
  1845     01D4  29C7               	goto	l2222
  1846     01D5                     u1800:
  1847     01D5                     l274:
  1848                           
  1849                           ;matrix_keypad.c: 80:     if (RB0 == 0)
  1850     01D5  1283               	bcf	3,5	;RP0=0, select bank0
  1851     01D6  1303               	bcf	3,6	;RP1=0, select bank0
  1852     01D7  1806               	btfsc	6,0	;volatile
  1853     01D8  29DA               	goto	u1811
  1854     01D9  29DB               	goto	u1810
  1855     01DA                     u1811:
  1856     01DA  29DD               	goto	l275
  1857     01DB                     u1810:
  1858     01DB                     l2224:
  1859                           
  1860                           ;matrix_keypad.c: 81:     {;matrix_keypad.c: 82:         return 7;
  1861     01DB  3007               	movlw	7
  1862     01DC  2A14               	goto	l259
  1863     01DD                     l275:	
  1864                           ;matrix_keypad.c: 84:     else if (RB1 == 0)
  1865                           
  1866     01DD  1886               	btfsc	6,1	;volatile
  1867     01DE  29E0               	goto	u1821
  1868     01DF  29E1               	goto	u1820
  1869     01E0                     u1821:
  1870     01E0  29E3               	goto	l277
  1871     01E1                     u1820:
  1872     01E1                     l2230:
  1873                           
  1874                           ;matrix_keypad.c: 85:     {;matrix_keypad.c: 86:         return 8;
  1875     01E1  3008               	movlw	8
  1876     01E2  2A14               	goto	l259
  1877     01E3                     l277:	
  1878                           ;matrix_keypad.c: 88:     else if (RB2 == 0)
  1879                           
  1880     01E3  1906               	btfsc	6,2	;volatile
  1881     01E4  29E6               	goto	u1831
  1882     01E5  29E7               	goto	u1830
  1883     01E6                     u1831:
  1884     01E6  29E9               	goto	l276
  1885     01E7                     u1830:
  1886     01E7                     l2236:
  1887                           
  1888                           ;matrix_keypad.c: 89:     {;matrix_keypad.c: 90:         return 9;
  1889     01E7  3009               	movlw	9
  1890     01E8  2A14               	goto	l259
  1891     01E9                     l276:
  1892                           
  1893                           ;matrix_keypad.c: 93:     RD3 = 1;
  1894     01E9  1588               	bsf	8,3	;volatile
  1895                           
  1896                           ;matrix_keypad.c: 94:     RD2 = 1;
  1897     01EA  1508               	bsf	8,2	;volatile
  1898                           
  1899                           ;matrix_keypad.c: 95:     RD1 = 1;
  1900     01EB  1488               	bsf	8,1	;volatile
  1901                           
  1902                           ;matrix_keypad.c: 96:     RD0 = 0;
  1903     01EC  1008               	bcf	8,0	;volatile
  1904     01ED                     l2240:
  1905                           
  1906                           ;matrix_keypad.c: 98:     for (i = 100; i--; );
  1907     01ED  3064               	movlw	100
  1908     01EE  00F0               	movwf	scan_keypad@i
  1909     01EF  3000               	movlw	0
  1910     01F0  00F1               	movwf	scan_keypad@i+1
  1911     01F1                     l2242:
  1912     01F1  30FF               	movlw	255
  1913     01F2  07F0               	addwf	scan_keypad@i,f
  1914     01F3  1803               	skipnc
  1915     01F4  0AF1               	incf	scan_keypad@i+1,f
  1916     01F5  30FF               	movlw	255
  1917     01F6  07F1               	addwf	scan_keypad@i+1,f
  1918     01F7  0A70               	incf	scan_keypad@i,w
  1919     01F8  1D03               	skipz
  1920     01F9  29FE               	goto	u1841
  1921     01FA  0A71               	incf	scan_keypad@i+1,w
  1922     01FB  1D03               	btfss	3,2
  1923     01FC  29FE               	goto	u1841
  1924     01FD  29FF               	goto	u1840
  1925     01FE                     u1841:
  1926     01FE  29F1               	goto	l2242
  1927     01FF                     u1840:
  1928     01FF                     l282:
  1929                           
  1930                           ;matrix_keypad.c: 100:     if (RB0 == 0)
  1931     01FF  1283               	bcf	3,5	;RP0=0, select bank0
  1932     0200  1303               	bcf	3,6	;RP1=0, select bank0
  1933     0201  1806               	btfsc	6,0	;volatile
  1934     0202  2A04               	goto	u1851
  1935     0203  2A05               	goto	u1850
  1936     0204                     u1851:
  1937     0204  2A07               	goto	l283
  1938     0205                     u1850:
  1939     0205                     l2244:
  1940                           
  1941                           ;matrix_keypad.c: 101:     {;matrix_keypad.c: 102:         return '*';
  1942     0205  302A               	movlw	42
  1943     0206  2A14               	goto	l259
  1944     0207                     l283:	
  1945                           ;matrix_keypad.c: 104:     else if (RB1 == 0)
  1946                           
  1947     0207  1886               	btfsc	6,1	;volatile
  1948     0208  2A0A               	goto	u1861
  1949     0209  2A0B               	goto	u1860
  1950     020A                     u1861:
  1951     020A  2A0D               	goto	l285
  1952     020B                     u1860:
  1953     020B                     l2250:
  1954                           
  1955                           ;matrix_keypad.c: 105:     {;matrix_keypad.c: 106:         return 0;
  1956     020B  3000               	movlw	0
  1957     020C  2A14               	goto	l259
  1958     020D                     l285:	
  1959                           ;matrix_keypad.c: 108:     else if (RB2 == 0)
  1960                           
  1961     020D  1906               	btfsc	6,2	;volatile
  1962     020E  2A10               	goto	u1871
  1963     020F  2A11               	goto	u1870
  1964     0210                     u1871:
  1965     0210  2A13               	goto	l2260
  1966     0211                     u1870:
  1967     0211                     l2256:
  1968                           
  1969                           ;matrix_keypad.c: 109:     {;matrix_keypad.c: 110:         return '#';
  1970     0211  3023               	movlw	35
  1971     0212  2A14               	goto	l259
  1972     0213                     l2260:
  1973                           
  1974                           ;matrix_keypad.c: 113:     return 0xFF;
  1975     0213  30FF               	movlw	255
  1976     0214                     l259:
  1977     0214  0008               	return
  1978     0215                     __end_of_scan_keypad:
  1979                           
  1980                           	psect	text3
  1981     005F                     __ptext3:	
  1982 ;; *************** function _power_on_screen *****************
  1983 ;; Defined at:
  1984 ;;		line 185 in file "main.c"
  1985 ;; Parameters:    Size  Location     Type
  1986 ;;		None
  1987 ;; Auto vars:     Size  Location     Type
  1988 ;;  i               2    7[BANK0 ] int 
  1989 ;;  i               2    5[BANK0 ] int 
  1990 ;; Return value:  Size  Location     Type
  1991 ;;                  1    wreg      void 
  1992 ;; Registers used:
  1993 ;;		wreg, fsr0l, fsr0h, status,2, status,0, btemp+1, pclath, cstack
  1994 ;; Tracked objects:
  1995 ;;		On entry : 0/0
  1996 ;;		On exit  : 0/0
  1997 ;;		Unchanged: 0/0
  1998 ;; Data sizes:     COMMON   BANK0   BANK1   BANK3   BANK2
  1999 ;;      Params:         0       0       0       0       0
  2000 ;;      Locals:         0       4       0       0       0
  2001 ;;      Temps:          0       3       0       0       0
  2002 ;;      Totals:         0       7       0       0       0
  2003 ;;Total ram usage:        7 bytes
  2004 ;; Hardware stack levels used: 1
  2005 ;; Hardware stack levels required when called: 2
  2006 ;; This function calls:
  2007 ;;		_clcd_print
  2008 ;;		_clcd_putch
  2009 ;; This function is called by:
  2010 ;;		_main
  2011 ;; This function uses a non-reentrant model
  2012 ;;
  2013                           
  2014     005F                     _power_on_screen:	
  2015                           ;psect for function _power_on_screen
  2016                           
  2017     005F                     l2278:	
  2018                           ;incstack = 0
  2019                           ; Regs used in _power_on_screen: [wreg-fsr0h+status,2+status,0+btemp+1+pclath+cstack]
  2020                           
  2021                           
  2022                           ;main.c: 186: void cooking_mode_display(void){
  2023     005F  1283               	bcf	3,5	;RP0=0, select bank0
  2024     0060  1303               	bcf	3,6	;RP1=0, select bank0
  2025     0061  01C9               	clrf	power_on_screen@i
  2026     0062  01CA               	clrf	power_on_screen@i+1
  2027     0063                     l2284:
  2028                           
  2029                           ;main.c: 187:     clcd_print("1.Micro", (0x80 + 0));;main.c: 188:     clcd_print("2.Gril
      +                          l", (0xC0 + 0));
  2030     0063  1283               	bcf	3,5	;RP0=0, select bank0
  2031     0064  1303               	bcf	3,6	;RP1=0, select bank0
  2032     0065  0849               	movf	power_on_screen@i,w
  2033     0066  3E80               	addlw	128
  2034     0067  00C4               	movwf	clcd_putch@addr
  2035     0068  30FF               	movlw	255
  2036     0069  120A  158A  25FB  120A  118A  	fcall	_clcd_putch
  2037     006E                     l2286:
  2038                           
  2039                           ;main.c: 189:     clcd_print("3.Convection", (0x90 + 0));
  2040     006E  3001               	movlw	1
  2041     006F  1283               	bcf	3,5	;RP0=0, select bank0
  2042     0070  1303               	bcf	3,6	;RP1=0, select bank0
  2043     0071  07C9               	addwf	power_on_screen@i,f
  2044     0072  1803               	skipnc
  2045     0073  0ACA               	incf	power_on_screen@i+1,f
  2046     0074  3000               	movlw	0
  2047     0075  07CA               	addwf	power_on_screen@i+1,f
  2048     0076                     l2288:
  2049     0076  084A               	movf	power_on_screen@i+1,w
  2050     0077  3A80               	xorlw	128
  2051     0078  00FF               	movwf	btemp+1
  2052     0079  3080               	movlw	128
  2053     007A  027F               	subwf	btemp+1,w
  2054     007B  1D03               	skipz
  2055     007C  287F               	goto	u1885
  2056     007D  3010               	movlw	16
  2057     007E  0249               	subwf	power_on_screen@i,w
  2058     007F                     u1885:
  2059     007F  1C03               	skipc
  2060     0080  2882               	goto	u1881
  2061     0081  2883               	goto	u1880
  2062     0082                     u1881:
  2063     0082  2863               	goto	l2284
  2064     0083                     u1880:
  2065     0083                     l2290:
  2066                           
  2067                           ;main.c: 190:     clcd_print("4.Start", (0xD0 + 0));
  2068     0083  3087               	movlw	low (STR_2| (0+32768))
  2069     0084  00F4               	movwf	clcd_print@str
  2070     0085  3088               	movlw	high (STR_2| (0+32768))
  2071     0086  00F5               	movwf	clcd_print@str+1
  2072     0087  30C0               	movlw	192
  2073     0088  00F6               	movwf	clcd_print@addr
  2074     0089  120A  158A  26A7  120A  118A  	fcall	_clcd_print
  2075                           
  2076                           ;main.c: 191: }
  2077     008E  3033               	movlw	low (STR_3| (0+32768))
  2078     008F  00F4               	movwf	clcd_print@str
  2079     0090  3088               	movlw	high (STR_3| (0+32768))
  2080     0091  00F5               	movwf	clcd_print@str+1
  2081     0092  3090               	movlw	144
  2082     0093  00F6               	movwf	clcd_print@addr
  2083     0094  120A  158A  26A7  120A  118A  	fcall	_clcd_print
  2084     0099                     l2292:
  2085                           
  2086                           ;main.c: 192: 
  2087     0099  1283               	bcf	3,5	;RP0=0, select bank0
  2088     009A  1303               	bcf	3,6	;RP1=0, select bank0
  2089     009B  01CB               	clrf	power_on_screen@i_126
  2090     009C  01CC               	clrf	power_on_screen@i_126+1
  2091     009D                     l2298:
  2092                           
  2093                           ;main.c: 193: void clear_display(void){;main.c: 194:     clcd_write(0x01, 0);
  2094     009D  1283               	bcf	3,5	;RP0=0, select bank0
  2095     009E  1303               	bcf	3,6	;RP1=0, select bank0
  2096     009F  084B               	movf	power_on_screen@i_126,w
  2097     00A0  3ED0               	addlw	208
  2098     00A1  00C4               	movwf	clcd_putch@addr
  2099     00A2  30FF               	movlw	255
  2100     00A3  120A  158A  25FB  120A  118A  	fcall	_clcd_putch
  2101     00A8                     l2300:
  2102                           
  2103                           ;main.c: 195: }
  2104     00A8  3001               	movlw	1
  2105     00A9  1283               	bcf	3,5	;RP0=0, select bank0
  2106     00AA  1303               	bcf	3,6	;RP1=0, select bank0
  2107     00AB  07CB               	addwf	power_on_screen@i_126,f
  2108     00AC  1803               	skipnc
  2109     00AD  0ACC               	incf	power_on_screen@i_126+1,f
  2110     00AE  3000               	movlw	0
  2111     00AF  07CC               	addwf	power_on_screen@i_126+1,f
  2112     00B0                     l2302:
  2113     00B0  084C               	movf	power_on_screen@i_126+1,w
  2114     00B1  3A80               	xorlw	128
  2115     00B2  00FF               	movwf	btemp+1
  2116     00B3  3080               	movlw	128
  2117     00B4  027F               	subwf	btemp+1,w
  2118     00B5  1D03               	skipz
  2119     00B6  28B9               	goto	u1895
  2120     00B7  3010               	movlw	16
  2121     00B8  024B               	subwf	power_on_screen@i_126,w
  2122     00B9                     u1895:
  2123     00B9  1C03               	skipc
  2124     00BA  28BC               	goto	u1891
  2125     00BB  28BD               	goto	u1890
  2126     00BC                     u1891:
  2127     00BC  289D               	goto	l2298
  2128     00BD                     u1890:
  2129     00BD                     l2304:
  2130                           
  2131                           ;main.c: 197: void set_time(unsigned char key)
  2132     00BD  301A               	movlw	26
  2133     00BE  1283               	bcf	3,5	;RP0=0, select bank0
  2134     00BF  1303               	bcf	3,6	;RP1=0, select bank0
  2135     00C0  00C8               	movwf	??_power_on_screen+2
  2136     00C1  305E               	movlw	94
  2137     00C2  00C7               	movwf	??_power_on_screen+1
  2138     00C3  306D               	movlw	109
  2139     00C4  00C6               	movwf	??_power_on_screen
  2140     00C5                     u2127:
  2141     00C5  0BC6               	decfsz	??_power_on_screen,f
  2142     00C6  28C5               	goto	u2127
  2143     00C7  0BC7               	decfsz	??_power_on_screen+1,f
  2144     00C8  28C5               	goto	u2127
  2145     00C9  0BC8               	decfsz	??_power_on_screen+2,f
  2146     00CA  28C5               	goto	u2127
  2147     00CB  28CC               	nop2
  2148     00CC                     l122:
  2149     00CC  0008               	return
  2150     00CD                     __end_of_power_on_screen:
  2151                           
  2152                           	psect	text4
  2153     00CD                     __ptext4:	
  2154 ;; *************** function _opearation_call *****************
  2155 ;; Defined at:
  2156 ;;		line 116 in file "main.c"
  2157 ;; Parameters:    Size  Location     Type
  2158 ;;  key             1    wreg     unsigned char 
  2159 ;; Auto vars:     Size  Location     Type
  2160 ;;  key             1    8[BANK0 ] unsigned char 
  2161 ;; Return value:  Size  Location     Type
  2162 ;;                  1    wreg      void 
  2163 ;; Registers used:
  2164 ;;		wreg, fsr0l, fsr0h, status,2, status,0, btemp+1, pclath, cstack
  2165 ;; Tracked objects:
  2166 ;;		On entry : 0/0
  2167 ;;		On exit  : 0/0
  2168 ;;		Unchanged: 0/0
  2169 ;; Data sizes:     COMMON   BANK0   BANK1   BANK3   BANK2
  2170 ;;      Params:         0       0       0       0       0
  2171 ;;      Locals:         0       1       0       0       0
  2172 ;;      Temps:          0       2       0       0       0
  2173 ;;      Totals:         0       3       0       0       0
  2174 ;;Total ram usage:        3 bytes
  2175 ;; Hardware stack levels used: 1
  2176 ;; Hardware stack levels required when called: 4
  2177 ;; This function calls:
  2178 ;;		_clear_display
  2179 ;;		_cooking_mode_display
  2180 ;;		_set_temp
  2181 ;;		_set_time
  2182 ;;		_time_display
  2183 ;; This function is called by:
  2184 ;;		_main
  2185 ;; This function uses a non-reentrant model
  2186 ;;
  2187                           
  2188     00CD                     _opearation_call:	
  2189                           ;psect for function _opearation_call
  2190                           
  2191                           
  2192                           ;incstack = 0
  2193                           ; Regs used in _opearation_call: [wreg-fsr0h+status,2+status,0+btemp+1+pclath+cstack]
  2194                           ;opearation_call@key stored from wreg
  2195     00CD  1283               	bcf	3,5	;RP0=0, select bank0
  2196     00CE  1303               	bcf	3,6	;RP1=0, select bank0
  2197     00CF  00CC               	movwf	opearation_call@key
  2198     00D0                     l2336:
  2199                           
  2200                           ;main.c: 116: ;main.c: 117:             break;;main.c: 118:             case 0x03:
  2201     00D0  2940               	goto	l2374
  2202     00D1                     l2338:
  2203                           
  2204                           ;main.c: 121:         case 0x04:
  2205     00D1  120A  158A  267A  120A  118A  	fcall	_cooking_mode_display
  2206                           
  2207                           ;main.c: 122:             if(heat_flag == 0)
  2208     00D6  295C               	goto	l2376
  2209     00D7                     l2340:
  2210                           
  2211                           ;main.c: 125:             if(ret == 1)
  2212     00D7  120A  118A  2215  120A  118A  	fcall	_time_display
  2213                           
  2214                           ;main.c: 126:             {
  2215     00DC  295C               	goto	l2376
  2216     00DD                     l2342:
  2217                           
  2218                           ;main.c: 129: 
  2219     00DD  084C               	movf	opearation_call@key,w
  2220     00DE  120A  118A  23F4  120A  118A  	fcall	_set_time
  2221                           
  2222                           ;main.c: 131:             else if(ret == 0)
  2223     00E3  295C               	goto	l2376
  2224     00E4                     l2344:
  2225                           
  2226                           ;main.c: 133:                 TMR2ON = 0;
  2227     00E4  084C               	movf	opearation_call@key,w
  2228     00E5  120A  118A  23F4  120A  118A  	fcall	_set_time
  2229                           
  2230                           ;main.c: 134:                 flag = 1;
  2231     00EA  295C               	goto	l2376
  2232     00EB                     l2346:
  2233                           
  2234                           ;main.c: 136:                 clear_display();
  2235     00EB  0830               	movf	_heat_flag,w
  2236     00EC  0431               	iorwf	_heat_flag+1,w
  2237     00ED  1D03               	btfss	3,2
  2238     00EE  28F0               	goto	u1941
  2239     00EF  28F1               	goto	u1940
  2240     00F0                     u1941:
  2241     00F0  2932               	goto	l2368
  2242     00F1                     u1940:
  2243     00F1                     l2348:
  2244                           
  2245                           ;main.c: 137:                 reset_flag = 0x13;;main.c: 138:                 set_time(k
      +                          ey);
  2246     00F1  084C               	movf	opearation_call@key,w
  2247     00F2  120A  118A  25E7  120A  118A  	fcall	_set_temp
  2248     00F7  1283               	bcf	3,5	;RP0=0, select bank0
  2249     00F8  1303               	bcf	3,6	;RP1=0, select bank0
  2250     00F9  00CA               	movwf	??_opearation_call
  2251     00FA  01CB               	clrf	??_opearation_call+1
  2252     00FB  084A               	movf	??_opearation_call,w
  2253     00FC  00B4               	movwf	_ret
  2254     00FD  084B               	movf	??_opearation_call+1,w
  2255     00FE  00B5               	movwf	_ret+1
  2256     00FF                     l2350:
  2257                           
  2258                           ;main.c: 139:             }
  2259     00FF  0334               	decf	_ret,w
  2260     0100  0435               	iorwf	_ret+1,w
  2261     0101  1D03               	btfss	3,2
  2262     0102  2904               	goto	u1951
  2263     0103  2905               	goto	u1950
  2264     0104                     u1951:
  2265     0104  290E               	goto	l2354
  2266     0105                     u1950:
  2267     0105                     l2352:
  2268                           
  2269                           ;main.c: 140:             else;main.c: 141:             {
  2270     0105  3001               	movlw	1
  2271     0106  00B2               	movwf	_flag
  2272     0107  3000               	movlw	0
  2273     0108  00B3               	movwf	_flag+1
  2274                           
  2275                           ;main.c: 142:                 flag = 0;
  2276     0109  3014               	movlw	20
  2277     010A  00BA               	movwf	_reset_flag
  2278     010B  3000               	movlw	0
  2279     010C  00BB               	movwf	_reset_flag+1
  2280                           
  2281                           ;main.c: 144:            }
  2282     010D  295C               	goto	l2376
  2283     010E                     l2354:
  2284     010E  0834               	movf	_ret,w
  2285     010F  0435               	iorwf	_ret+1,w
  2286     0110  1D03               	btfss	3,2
  2287     0111  2913               	goto	u1961
  2288     0112  2914               	goto	u1960
  2289     0113                     u1961:
  2290     0113  292F               	goto	l2366
  2291     0114                     u1960:
  2292     0114                     l2356:
  2293                           
  2294                           ;main.c: 146:             {;main.c: 147:                 set_time(key);
  2295     0114  1112               	bcf	18,2	;volatile
  2296     0115                     l2358:
  2297                           
  2298                           ;main.c: 148:             }
  2299     0115  3001               	movlw	1
  2300     0116  00B2               	movwf	_flag
  2301     0117  3000               	movlw	0
  2302     0118  00B3               	movwf	_flag+1
  2303                           
  2304                           ;main.c: 149:                break;
  2305     0119  3001               	movlw	1
  2306     011A  00B0               	movwf	_heat_flag
  2307     011B  3000               	movlw	0
  2308     011C  00B1               	movwf	_heat_flag+1
  2309     011D                     l2360:
  2310                           
  2311                           ;main.c: 150:         case 0x07:
  2312     011D  120A  158A  25C3  120A  118A  	fcall	_clear_display
  2313     0122                     l2362:
  2314                           
  2315                           ;main.c: 151:             TMR2ON = 0;
  2316     0122  3013               	movlw	19
  2317     0123  1283               	bcf	3,5	;RP0=0, select bank0
  2318     0124  1303               	bcf	3,6	;RP1=0, select bank0
  2319     0125  00BA               	movwf	_reset_flag
  2320     0126  3000               	movlw	0
  2321     0127  00BB               	movwf	_reset_flag+1
  2322     0128                     l2364:
  2323                           
  2324                           ;main.c: 152:             RC2 = 0;
  2325     0128  084C               	movf	opearation_call@key,w
  2326     0129  120A  118A  23F4  120A  118A  	fcall	_set_time
  2327                           
  2328                           ;main.c: 153:             operation_mode = 0x01;
  2329     012E  295C               	goto	l2376
  2330     012F                     l2366:
  2331                           
  2332                           ;main.c: 155: ;main.c: 156: 
  2333     012F  01B2               	clrf	_flag
  2334     0130  01B3               	clrf	_flag+1
  2335     0131  295C               	goto	l2376
  2336     0132                     l2368:
  2337                           
  2338                           ;main.c: 160:     };main.c: 161:     if(flag == 0)
  2339     0132  084C               	movf	opearation_call@key,w
  2340     0133  120A  118A  23F4  120A  118A  	fcall	_set_time
  2341     0138  295C               	goto	l2376
  2342     0139                     l113:	
  2343                           ;main.c: 164:     }
  2344                           
  2345                           
  2346                           ;main.c: 165: 
  2347     0139  1112               	bcf	18,2	;volatile
  2348                           
  2349                           ;main.c: 166: }
  2350     013A  1107               	bcf	7,2	;volatile
  2351     013B                     l2370:
  2352                           
  2353                           ;main.c: 167: 
  2354     013B  3001               	movlw	1
  2355     013C  00BC               	movwf	_operation_mode
  2356     013D  3000               	movlw	0
  2357     013E  00BD               	movwf	_operation_mode+1
  2358                           
  2359                           ;main.c: 168: 
  2360     013F  295C               	goto	l2376
  2361     0140                     l2374:
  2362                           
  2363                           ; Switch on 2 bytes has been partitioned into a top level switch of size 1, and 1 sub-sw
      +                          itches
  2364                           ; Switch size 1, requested type "simple"
  2365                           ; Number of cases is 1, Range of values is 0 to 0
  2366                           ; switch strategies available:
  2367                           ; Name         Instructions Cycles
  2368                           ; simple_byte            4     3 (average)
  2369                           ; direct_byte           11     8 (fixed)
  2370                           ; jumptable            260     6 (fixed)
  2371                           ;	Chosen strategy is simple_byte
  2372     0140  083D               	movf	_operation_mode+1,w
  2373     0141  3A00               	xorlw	0	; case 0
  2374     0142  1903               	skipnz
  2375     0143  2945               	goto	l2522
  2376     0144  295C               	goto	l2376
  2377     0145                     l2522:
  2378                           
  2379                           ; Switch size 1, requested type "simple"
  2380                           ; Number of cases is 7, Range of values is 1 to 7
  2381                           ; switch strategies available:
  2382                           ; Name         Instructions Cycles
  2383                           ; simple_byte           22    12 (average)
  2384                           ; direct_byte           32    11 (fixed)
  2385                           ; jumptable            263     9 (fixed)
  2386                           ;	Chosen strategy is simple_byte
  2387     0145  083C               	movf	_operation_mode,w
  2388     0146  3A01               	xorlw	1	; case 1
  2389     0147  1903               	skipnz
  2390     0148  28D1               	goto	l2338
  2391     0149  3A03               	xorlw	3	; case 2
  2392     014A  1903               	skipnz
  2393     014B  28DD               	goto	l2342
  2394     014C  3A01               	xorlw	1	; case 3
  2395     014D  1903               	skipnz
  2396     014E  28E4               	goto	l2344
  2397     014F  3A07               	xorlw	7	; case 4
  2398     0150  1903               	skipnz
  2399     0151  28EB               	goto	l2346
  2400     0152  3A01               	xorlw	1	; case 5
  2401     0153  1903               	skipnz
  2402     0154  28D7               	goto	l2340
  2403     0155  3A03               	xorlw	3	; case 6
  2404     0156  1903               	skipnz
  2405     0157  28D7               	goto	l2340
  2406     0158  3A01               	xorlw	1	; case 7
  2407     0159  1903               	skipnz
  2408     015A  2939               	goto	l113
  2409     015B  295C               	goto	l2376
  2410     015C                     l2376:
  2411                           
  2412                           ;main.c: 175:     }
  2413     015C  1283               	bcf	3,5	;RP0=0, select bank0
  2414     015D  1303               	bcf	3,6	;RP1=0, select bank0
  2415     015E  0832               	movf	_flag,w
  2416     015F  0433               	iorwf	_flag+1,w
  2417     0160  1D03               	btfss	3,2
  2418     0161  2963               	goto	u1971
  2419     0162  2964               	goto	u1970
  2420     0163                     u1971:
  2421     0163  2968               	goto	l115
  2422     0164                     u1970:
  2423     0164                     l2378:
  2424                           
  2425                           ;main.c: 176:     clcd_print("  Powering ON ", (0xC0 + 0));;main.c: 177:     clcd_print(
      +                          " Microwave Oven ", (0x90 + 0));
  2426     0164  300F               	movlw	15
  2427     0165  00BA               	movwf	_reset_flag
  2428     0166  3000               	movlw	0
  2429     0167  00BB               	movwf	_reset_flag+1
  2430     0168                     l115:
  2431     0168  0008               	return
  2432     0169                     __end_of_opearation_call:
  2433                           
  2434                           	psect	text5
  2435     0215                     __ptext5:	
  2436 ;; *************** function _time_display *****************
  2437 ;; Defined at:
  2438 ;;		line 326 in file "main.c"
  2439 ;; Parameters:    Size  Location     Type
  2440 ;;		None
  2441 ;; Auto vars:     Size  Location     Type
  2442 ;;		None
  2443 ;; Return value:  Size  Location     Type
  2444 ;;                  1    wreg      void 
  2445 ;; Registers used:
  2446 ;;		wreg, fsr0l, fsr0h, status,2, status,0, btemp+1, pclath, cstack
  2447 ;; Tracked objects:
  2448 ;;		On entry : 0/0
  2449 ;;		On exit  : 0/0
  2450 ;;		Unchanged: 0/0
  2451 ;; Data sizes:     COMMON   BANK0   BANK1   BANK3   BANK2
  2452 ;;      Params:         0       0       0       0       0
  2453 ;;      Locals:         0       0       0       0       0
  2454 ;;      Temps:          0       3       0       0       0
  2455 ;;      Totals:         0       3       0       0       0
  2456 ;;Total ram usage:        3 bytes
  2457 ;; Hardware stack levels used: 1
  2458 ;; Hardware stack levels required when called: 3
  2459 ;; This function calls:
  2460 ;;		___awdiv
  2461 ;;		___awmod
  2462 ;;		_clcd_print
  2463 ;;		_clcd_putch
  2464 ;;		_clear_display
  2465 ;;		_door_status_check
  2466 ;; This function is called by:
  2467 ;;		_opearation_call
  2468 ;; This function uses a non-reentrant model
  2469 ;;
  2470                           
  2471     0215                     _time_display:	
  2472                           ;psect for function _time_display
  2473                           
  2474     0215                     l1918:	
  2475                           ;incstack = 0
  2476                           ; Regs used in _time_display: [wreg-fsr0h+status,2+status,0+btemp+1+pclath+cstack]
  2477                           
  2478                           
  2479                           ;main.c: 328:     clcd_print(" 6.STOP         ",(0xD0 + 0));
  2480     0215  120A  158A  270C  120A  118A  	fcall	_door_status_check
  2481                           
  2482                           ;main.c: 329: 
  2483     021A  300E               	movlw	low (STR_15| (0+32768))
  2484     021B  00F4               	movwf	clcd_print@str
  2485     021C  3089               	movlw	high (STR_15| (0+32768))
  2486     021D  00F5               	movwf	clcd_print@str+1
  2487     021E  3080               	movlw	128
  2488     021F  00F6               	movwf	clcd_print@addr
  2489     0220  120A  158A  26A7  120A  118A  	fcall	_clcd_print
  2490     0225                     l1920:
  2491                           
  2492                           ;main.c: 330:     if((min == 0) && (sec == 0))
  2493     0225  300A               	movlw	10
  2494     0226  00F0               	movwf	___awdiv@divisor
  2495     0227  3000               	movlw	0
  2496     0228  00F1               	movwf	___awdiv@divisor+1
  2497     0229  1283               	bcf	3,5	;RP0=0, select bank0
  2498     022A  1303               	bcf	3,6	;RP1=0, select bank0
  2499     022B  0839               	movf	_min+1,w
  2500     022C  00F3               	movwf	___awdiv@dividend+1
  2501     022D  0838               	movf	_min,w
  2502     022E  00F2               	movwf	___awdiv@dividend
  2503     022F  120A  158A  2799  120A  118A  	fcall	___awdiv
  2504     0234  0870               	movf	?___awdiv,w
  2505     0235  3E30               	addlw	48
  2506     0236  1283               	bcf	3,5	;RP0=0, select bank0
  2507     0237  1303               	bcf	3,6	;RP1=0, select bank0
  2508     0238  00BE               	movwf	_min_array
  2509     0239                     l1922:
  2510                           
  2511                           ;main.c: 331:     {
  2512     0239  300A               	movlw	10
  2513     023A  00F8               	movwf	___awmod@divisor
  2514     023B  3000               	movlw	0
  2515     023C  00F9               	movwf	___awmod@divisor+1
  2516     023D  0839               	movf	_min+1,w
  2517     023E  00FB               	movwf	___awmod@dividend+1
  2518     023F  0838               	movf	_min,w
  2519     0240  00FA               	movwf	___awmod@dividend
  2520     0241  120A  118A  2006  120A  118A  	fcall	___awmod
  2521     0246  0878               	movf	?___awmod,w
  2522     0247  3E30               	addlw	48
  2523     0248  1283               	bcf	3,5	;RP0=0, select bank0
  2524     0249  1303               	bcf	3,6	;RP1=0, select bank0
  2525     024A  00BF               	movwf	_min_array+1
  2526     024B                     l1924:
  2527                           
  2528                           ;main.c: 332:         TMR2ON = 0;
  2529     024B  01C0               	clrf	_min_array+2
  2530     024C                     l1926:
  2531                           
  2532                           ;main.c: 333:         RC2 = 0;
  2533     024C  303E               	movlw	(low (_min_array| 0))& (0+255)
  2534     024D  00F4               	movwf	clcd_print@str
  2535     024E  3000               	movlw	0
  2536     024F  00F5               	movwf	clcd_print@str+1
  2537     0250  3089               	movlw	137
  2538     0251  00F6               	movwf	clcd_print@addr
  2539     0252  120A  158A  26A7  120A  118A  	fcall	_clcd_print
  2540     0257                     l1928:
  2541                           
  2542                           ;main.c: 334:         clear_display();
  2543     0257  308B               	movlw	139
  2544     0258  1283               	bcf	3,5	;RP0=0, select bank0
  2545     0259  1303               	bcf	3,6	;RP1=0, select bank0
  2546     025A  00C4               	movwf	clcd_putch@addr
  2547     025B  303A               	movlw	58
  2548     025C  120A  158A  25FB  120A  118A  	fcall	_clcd_putch
  2549     0261                     l1930:
  2550                           
  2551                           ;main.c: 337:         _delay((unsigned long)((3000)*(20000000/4000.0)));
  2552     0261  308C               	movlw	140
  2553     0262  1283               	bcf	3,5	;RP0=0, select bank0
  2554     0263  1303               	bcf	3,6	;RP1=0, select bank0
  2555     0264  00C4               	movwf	clcd_putch@addr
  2556     0265  300A               	movlw	10
  2557     0266  00F0               	movwf	___awdiv@divisor
  2558     0267  3000               	movlw	0
  2559     0268  00F1               	movwf	___awdiv@divisor+1
  2560     0269  0837               	movf	_sec+1,w
  2561     026A  00F3               	movwf	___awdiv@dividend+1
  2562     026B  0836               	movf	_sec,w
  2563     026C  00F2               	movwf	___awdiv@dividend
  2564     026D  120A  158A  2799  120A  118A  	fcall	___awdiv
  2565     0272  0870               	movf	?___awdiv,w
  2566     0273  3E30               	addlw	48
  2567     0274  120A  158A  25FB  120A  118A  	fcall	_clcd_putch
  2568     0279                     l1932:
  2569                           
  2570                           ;main.c: 338:         RC1 = 0;
  2571     0279  308D               	movlw	141
  2572     027A  1283               	bcf	3,5	;RP0=0, select bank0
  2573     027B  1303               	bcf	3,6	;RP1=0, select bank0
  2574     027C  00C4               	movwf	clcd_putch@addr
  2575     027D  300A               	movlw	10
  2576     027E  00F8               	movwf	___awmod@divisor
  2577     027F  3000               	movlw	0
  2578     0280  00F9               	movwf	___awmod@divisor+1
  2579     0281  0837               	movf	_sec+1,w
  2580     0282  00FB               	movwf	___awmod@dividend+1
  2581     0283  0836               	movf	_sec,w
  2582     0284  00FA               	movwf	___awmod@dividend
  2583     0285  120A  118A  2006  120A  118A  	fcall	___awmod
  2584     028A  0878               	movf	?___awmod,w
  2585     028B  3E30               	addlw	48
  2586     028C  120A  158A  25FB  120A  118A  	fcall	_clcd_putch
  2587     0291                     l1934:
  2588                           
  2589                           ;main.c: 340:         clear_display();
  2590     0291  3022               	movlw	low (STR_16| (0+32768))
  2591     0292  00F4               	movwf	clcd_print@str
  2592     0293  3088               	movlw	high (STR_16| (0+32768))
  2593     0294  00F5               	movwf	clcd_print@str+1
  2594     0295  30C0               	movlw	192
  2595     0296  00F6               	movwf	clcd_print@addr
  2596     0297  120A  158A  26A7  120A  118A  	fcall	_clcd_print
  2597     029C                     l1936:
  2598                           
  2599                           ;main.c: 341:         operation_mode = 0x01;
  2600     029C  3011               	movlw	low (STR_17| (0+32768))
  2601     029D  00F4               	movwf	clcd_print@str
  2602     029E  3088               	movlw	high (STR_17| (0+32768))
  2603     029F  00F5               	movwf	clcd_print@str+1
  2604     02A0  3090               	movlw	144
  2605     02A1  00F6               	movwf	clcd_print@addr
  2606     02A2  120A  158A  26A7  120A  118A  	fcall	_clcd_print
  2607     02A7                     l1938:
  2608                           
  2609                           ;main.c: 342: 
  2610     02A7  3000               	movlw	low (STR_18| (0+32768))
  2611     02A8  00F4               	movwf	clcd_print@str
  2612     02A9  3088               	movlw	high (STR_18| (0+32768))
  2613     02AA  00F5               	movwf	clcd_print@str+1
  2614     02AB  30D0               	movlw	208
  2615     02AC  00F6               	movwf	clcd_print@addr
  2616     02AD  120A  158A  26A7  120A  118A  	fcall	_clcd_print
  2617     02B2                     l1940:
  2618                           
  2619                           ;main.c: 344:     }
  2620     02B2  1283               	bcf	3,5	;RP0=0, select bank0
  2621     02B3  1303               	bcf	3,6	;RP1=0, select bank0
  2622     02B4  0838               	movf	_min,w
  2623     02B5  0439               	iorwf	_min+1,w
  2624     02B6  1D03               	btfss	3,2
  2625     02B7  2AB9               	goto	u1351
  2626     02B8  2ABA               	goto	u1350
  2627     02B9                     u1351:
  2628     02B9  2AF1               	goto	l171
  2629     02BA                     u1350:
  2630     02BA                     l1942:
  2631     02BA  0836               	movf	_sec,w
  2632     02BB  0437               	iorwf	_sec+1,w
  2633     02BC  1D03               	btfss	3,2
  2634     02BD  2ABF               	goto	u1361
  2635     02BE  2AC0               	goto	u1360
  2636     02BF                     u1361:
  2637     02BF  2AF1               	goto	l171
  2638     02C0                     u1360:
  2639     02C0                     l1944:
  2640                           
  2641                           ;main.c: 345: ;main.c: 346: }
  2642     02C0  1112               	bcf	18,2	;volatile
  2643                           
  2644                           ;main.c: 347: 
  2645     02C1  1107               	bcf	7,2	;volatile
  2646     02C2                     l1946:
  2647                           
  2648                           ;main.c: 348: char set_temp(unsigned char key)
  2649     02C2  120A  158A  25C3  120A  118A  	fcall	_clear_display
  2650     02C7                     l1948:
  2651                           
  2652                           ;main.c: 349: {
  2653     02C7  3077               	movlw	low (STR_19| (0+32768))
  2654     02C8  00F4               	movwf	clcd_print@str
  2655     02C9  3088               	movlw	high (STR_19| (0+32768))
  2656     02CA  00F5               	movwf	clcd_print@str+1
  2657     02CB  30C0               	movlw	192
  2658     02CC  00F6               	movwf	clcd_print@addr
  2659     02CD  120A  158A  26A7  120A  118A  	fcall	_clcd_print
  2660     02D2                     l1950:
  2661                           
  2662                           ;main.c: 350:     static int blink, wait, key_count, temp;
  2663     02D2  1283               	bcf	3,5	;RP0=0, select bank0
  2664     02D3  1303               	bcf	3,6	;RP1=0, select bank0
  2665     02D4  1487               	bsf	7,1	;volatile
  2666     02D5                     l1952:
  2667                           
  2668                           ;main.c: 351:     if(reset_flag == 0X14)
  2669     02D5  304D               	movlw	77
  2670     02D6  1283               	bcf	3,5	;RP0=0, select bank0
  2671     02D7  1303               	bcf	3,6	;RP1=0, select bank0
  2672     02D8  00C8               	movwf	??_time_display+2
  2673     02D9  3019               	movlw	25
  2674     02DA  00C7               	movwf	??_time_display+1
  2675     02DB  304F               	movlw	79
  2676     02DC  00C6               	movwf	??_time_display
  2677     02DD                     u2137:
  2678     02DD  0BC6               	decfsz	??_time_display,f
  2679     02DE  2ADD               	goto	u2137
  2680     02DF  0BC7               	decfsz	??_time_display+1,f
  2681     02E0  2ADD               	goto	u2137
  2682     02E1  0BC8               	decfsz	??_time_display+2,f
  2683     02E2  2ADD               	goto	u2137
  2684     02E3                     l1954:
  2685                           
  2686                           ;main.c: 352:     {
  2687     02E3  1283               	bcf	3,5	;RP0=0, select bank0
  2688     02E4  1303               	bcf	3,6	;RP1=0, select bank0
  2689     02E5  1087               	bcf	7,1	;volatile
  2690     02E6                     l1956:
  2691                           
  2692                           ;main.c: 354:         key = 0xFF;
  2693     02E6  120A  158A  25C3  120A  118A  	fcall	_clear_display
  2694     02EB                     l1958:
  2695                           
  2696                           ;main.c: 355:         key_count = 0;
  2697     02EB  3001               	movlw	1
  2698     02EC  1283               	bcf	3,5	;RP0=0, select bank0
  2699     02ED  1303               	bcf	3,6	;RP1=0, select bank0
  2700     02EE  00BC               	movwf	_operation_mode
  2701     02EF  3000               	movlw	0
  2702     02F0  00BD               	movwf	_operation_mode+1
  2703     02F1                     l171:
  2704     02F1  0008               	return
  2705     02F2                     __end_of_time_display:
  2706                           
  2707                           	psect	text6
  2708     03F4                     __ptext6:	
  2709 ;; *************** function _set_time *****************
  2710 ;; Defined at:
  2711 ;;		line 211 in file "main.c"
  2712 ;; Parameters:    Size  Location     Type
  2713 ;;  key             1    wreg     unsigned char 
  2714 ;; Auto vars:     Size  Location     Type
  2715 ;;  key             1    2[BANK0 ] unsigned char 
  2716 ;; Return value:  Size  Location     Type
  2717 ;;                  1    wreg      void 
  2718 ;; Registers used:
  2719 ;;		wreg, fsr0l, fsr0h, status,2, status,0, btemp+1, pclath, cstack
  2720 ;; Tracked objects:
  2721 ;;		On entry : 0/0
  2722 ;;		On exit  : 0/0
  2723 ;;		Unchanged: 0/0
  2724 ;; Data sizes:     COMMON   BANK0   BANK1   BANK3   BANK2
  2725 ;;      Params:         0       0       0       0       0
  2726 ;;      Locals:         0       1       0       0       0
  2727 ;;      Temps:          0       2       0       0       0
  2728 ;;      Totals:         0       3       0       0       0
  2729 ;;Total ram usage:        3 bytes
  2730 ;; Hardware stack levels used: 1
  2731 ;; Hardware stack levels required when called: 2
  2732 ;; This function calls:
  2733 ;;		___awdiv
  2734 ;;		___awmod
  2735 ;;		___wmul
  2736 ;;		_clcd_print
  2737 ;;		_clear_display
  2738 ;; This function is called by:
  2739 ;;		_opearation_call
  2740 ;; This function uses a non-reentrant model
  2741 ;;
  2742                           
  2743     03F4                     _set_time:	
  2744                           ;psect for function _set_time
  2745                           
  2746                           
  2747                           ;incstack = 0
  2748                           ; Regs used in _set_time: [wreg-fsr0h+status,2+status,0+btemp+1+pclath+cstack]
  2749                           ;set_time@key stored from wreg
  2750     03F4  1283               	bcf	3,5	;RP0=0, select bank0
  2751     03F5  1303               	bcf	3,6	;RP1=0, select bank0
  2752     03F6  00C6               	movwf	set_time@key
  2753     03F7                     l1960:
  2754                           
  2755                           ;main.c: 211:         clcd_print("*:CLEAR  #:ENTER", (0xD0 + 0));;main.c: 212:     };mai
      +                          n.c: 213:     if(key != 0xFF && key != '*' && key != '#');main.c: 214:     {
  2756     03F7  083B               	movf	_reset_flag+1,w
  2757     03F8  3A80               	xorlw	128
  2758     03F9  00FF               	movwf	btemp+1
  2759     03FA  3080               	movlw	128
  2760     03FB  027F               	subwf	btemp+1,w
  2761     03FC  1D03               	skipz
  2762     03FD  2C00               	goto	u1375
  2763     03FE  3011               	movlw	17
  2764     03FF  023A               	subwf	_reset_flag,w
  2765     0400                     u1375:
  2766     0400  1C03               	skipc
  2767     0401  2C03               	goto	u1371
  2768     0402  2C04               	goto	u1370
  2769     0403                     u1371:
  2770     0403  2C33               	goto	l1980
  2771     0404                     u1370:
  2772     0404                     l1962:
  2773                           
  2774                           ;main.c: 215: ;main.c: 217:         if(key_count <= 2)
  2775     0404  30FF               	movlw	255
  2776     0405  1283               	bcf	3,5	;RP0=0, select bank0
  2777     0406  1303               	bcf	3,6	;RP1=0, select bank0
  2778     0407  00C6               	movwf	set_time@key
  2779     0408                     l1964:
  2780                           
  2781                           ;main.c: 218:         {
  2782     0408  01A8               	clrf	set_time@key_count
  2783     0409  01A9               	clrf	set_time@key_count+1
  2784     040A                     l1966:
  2785                           
  2786                           ;main.c: 219:         sec = sec * 10 + key;
  2787     040A  01B6               	clrf	_sec
  2788     040B  01B7               	clrf	_sec+1
  2789     040C                     l1968:
  2790                           
  2791                           ;main.c: 220: 
  2792     040C  01B8               	clrf	_min
  2793     040D  01B9               	clrf	_min+1
  2794     040E                     l1970:
  2795                           
  2796                           ;main.c: 221: 
  2797     040E  01AE               	clrf	set_time@blink
  2798     040F  01AF               	clrf	set_time@blink+1
  2799     0410                     l1972:
  2800                           
  2801                           ;main.c: 222:         }
  2802     0410  01AA               	clrf	set_time@blink_pos
  2803     0411  01AB               	clrf	set_time@blink_pos+1
  2804     0412                     l1974:
  2805                           
  2806                           ;main.c: 223:         else if (key_count > 2 && key_count < 5)
  2807     0412  3044               	movlw	low (STR_8| (0+32768))
  2808     0413  00F4               	movwf	clcd_print@str
  2809     0414  3088               	movlw	high (STR_8| (0+32768))
  2810     0415  00F5               	movwf	clcd_print@str+1
  2811     0416  3080               	movlw	128
  2812     0417  00F6               	movwf	clcd_print@addr
  2813     0418  120A  158A  26A7  120A  118A  	fcall	_clcd_print
  2814     041D                     l1976:
  2815                           
  2816                           ;main.c: 224:         {
  2817     041D  30F7               	movlw	low (STR_9| (0+32768))
  2818     041E  00F4               	movwf	clcd_print@str
  2819     041F  3088               	movlw	high (STR_9| (0+32768))
  2820     0420  00F5               	movwf	clcd_print@str+1
  2821     0421  30C0               	movlw	192
  2822     0422  00F6               	movwf	clcd_print@addr
  2823     0423  120A  158A  26A7  120A  118A  	fcall	_clcd_print
  2824     0428                     l1978:
  2825                           
  2826                           ;main.c: 225:             min = min *10 + key;
  2827     0428  3066               	movlw	low (STR_10| (0+32768))
  2828     0429  00F4               	movwf	clcd_print@str
  2829     042A  3088               	movlw	high (STR_10| (0+32768))
  2830     042B  00F5               	movwf	clcd_print@str+1
  2831     042C  30D0               	movlw	208
  2832     042D  00F6               	movwf	clcd_print@addr
  2833     042E  120A  158A  26A7  120A  118A  	fcall	_clcd_print
  2834     0433                     l1980:
  2835                           
  2836                           ;main.c: 227:         }
  2837     0433  1283               	bcf	3,5	;RP0=0, select bank0
  2838     0434  1303               	bcf	3,6	;RP1=0, select bank0
  2839     0435  0A46               	incf	set_time@key,w
  2840     0436  1903               	btfsc	3,2
  2841     0437  2C39               	goto	u1381
  2842     0438  2C3A               	goto	u1380
  2843     0439                     u1381:
  2844     0439  2CE3               	goto	l2008
  2845     043A                     u1380:
  2846     043A                     l1982:
  2847     043A  302A               	movlw	42
  2848     043B  0646               	xorwf	set_time@key,w
  2849     043C  1903               	btfsc	3,2
  2850     043D  2C3F               	goto	u1391
  2851     043E  2C40               	goto	u1390
  2852     043F                     u1391:
  2853     043F  2CE3               	goto	l2008
  2854     0440                     u1390:
  2855     0440                     l1984:
  2856     0440  3023               	movlw	35
  2857     0441  0646               	xorwf	set_time@key,w
  2858     0442  1903               	btfsc	3,2
  2859     0443  2C45               	goto	u1401
  2860     0444  2C46               	goto	u1400
  2861     0445                     u1401:
  2862     0445  2CE3               	goto	l2008
  2863     0446                     u1400:
  2864     0446                     l1986:
  2865                           
  2866                           ;main.c: 228:         if(key_count < 2);main.c: 230:             blink_pos = 0;
  2867     0446  3001               	movlw	1
  2868     0447  07A8               	addwf	set_time@key_count,f
  2869     0448  1803               	skipnc
  2870     0449  0AA9               	incf	set_time@key_count+1,f
  2871     044A  3000               	movlw	0
  2872     044B  07A9               	addwf	set_time@key_count+1,f
  2873     044C                     l1988:
  2874                           
  2875                           ;main.c: 231:         }
  2876     044C  0829               	movf	set_time@key_count+1,w
  2877     044D  3A80               	xorlw	128
  2878     044E  00FF               	movwf	btemp+1
  2879     044F  3080               	movlw	128
  2880     0450  027F               	subwf	btemp+1,w
  2881     0451  1D03               	skipz
  2882     0452  2C55               	goto	u1415
  2883     0453  3003               	movlw	3
  2884     0454  0228               	subwf	set_time@key_count,w
  2885     0455                     u1415:
  2886     0455  1803               	skipnc
  2887     0456  2C58               	goto	u1411
  2888     0457  2C59               	goto	u1410
  2889     0458                     u1411:
  2890     0458  2C73               	goto	l1992
  2891     0459                     u1410:
  2892     0459                     l1990:
  2893                           
  2894                           ;main.c: 232:         else if(key_count > 2 && key_count < 5);main.c: 233:         {
  2895     0459  1283               	bcf	3,5	;RP0=0, select bank0
  2896     045A  1303               	bcf	3,6	;RP1=0, select bank0
  2897     045B  0837               	movf	_sec+1,w
  2898     045C  00F1               	movwf	___wmul@multiplier+1
  2899     045D  0836               	movf	_sec,w
  2900     045E  00F0               	movwf	___wmul@multiplier
  2901     045F  300A               	movlw	10
  2902     0460  00F2               	movwf	___wmul@multiplicand
  2903     0461  3000               	movlw	0
  2904     0462  00F3               	movwf	___wmul@multiplicand+1
  2905     0463  120A  158A  262E  120A  118A  	fcall	___wmul
  2906     0468  1283               	bcf	3,5	;RP0=0, select bank0
  2907     0469  1303               	bcf	3,6	;RP1=0, select bank0
  2908     046A  0846               	movf	set_time@key,w
  2909     046B  0770               	addwf	?___wmul,w
  2910     046C  00B6               	movwf	_sec
  2911     046D  3000               	movlw	0
  2912     046E  1803               	skipnc
  2913     046F  3001               	movlw	1
  2914     0470  0771               	addwf	?___wmul+1,w
  2915     0471  00B7               	movwf	_sec+1
  2916                           
  2917                           ;main.c: 236:     }
  2918     0472  2CAA               	goto	l1998
  2919     0473                     l1992:
  2920     0473  1283               	bcf	3,5	;RP0=0, select bank0
  2921     0474  1303               	bcf	3,6	;RP1=0, select bank0
  2922     0475  0829               	movf	set_time@key_count+1,w
  2923     0476  3A80               	xorlw	128
  2924     0477  00FF               	movwf	btemp+1
  2925     0478  3080               	movlw	128
  2926     0479  027F               	subwf	btemp+1,w
  2927     047A  1D03               	skipz
  2928     047B  2C7E               	goto	u1425
  2929     047C  3003               	movlw	3
  2930     047D  0228               	subwf	set_time@key_count,w
  2931     047E                     u1425:
  2932     047E  1C03               	skipc
  2933     047F  2C81               	goto	u1421
  2934     0480  2C82               	goto	u1420
  2935     0481                     u1421:
  2936     0481  2CAA               	goto	l1998
  2937     0482                     u1420:
  2938     0482                     l1994:
  2939     0482  1283               	bcf	3,5	;RP0=0, select bank0
  2940     0483  1303               	bcf	3,6	;RP1=0, select bank0
  2941     0484  0829               	movf	set_time@key_count+1,w
  2942     0485  3A80               	xorlw	128
  2943     0486  00FF               	movwf	btemp+1
  2944     0487  3080               	movlw	128
  2945     0488  027F               	subwf	btemp+1,w
  2946     0489  1D03               	skipz
  2947     048A  2C8D               	goto	u1435
  2948     048B  3005               	movlw	5
  2949     048C  0228               	subwf	set_time@key_count,w
  2950     048D                     u1435:
  2951     048D  1803               	skipnc
  2952     048E  2C90               	goto	u1431
  2953     048F  2C91               	goto	u1430
  2954     0490                     u1431:
  2955     0490  2CAA               	goto	l1998
  2956     0491                     u1430:
  2957     0491                     l1996:
  2958                           
  2959                           ;main.c: 238:     else if(key == '*');main.c: 239:     {
  2960     0491  1283               	bcf	3,5	;RP0=0, select bank0
  2961     0492  1303               	bcf	3,6	;RP1=0, select bank0
  2962     0493  0839               	movf	_min+1,w
  2963     0494  00F1               	movwf	___wmul@multiplier+1
  2964     0495  0838               	movf	_min,w
  2965     0496  00F0               	movwf	___wmul@multiplier
  2966     0497  300A               	movlw	10
  2967     0498  00F2               	movwf	___wmul@multiplicand
  2968     0499  3000               	movlw	0
  2969     049A  00F3               	movwf	___wmul@multiplicand+1
  2970     049B  120A  158A  262E  120A  118A  	fcall	___wmul
  2971     04A0  1283               	bcf	3,5	;RP0=0, select bank0
  2972     04A1  1303               	bcf	3,6	;RP1=0, select bank0
  2973     04A2  0846               	movf	set_time@key,w
  2974     04A3  0770               	addwf	?___wmul,w
  2975     04A4  00B8               	movwf	_min
  2976     04A5  3000               	movlw	0
  2977     04A6  1803               	skipnc
  2978     04A7  3001               	movlw	1
  2979     04A8  0771               	addwf	?___wmul+1,w
  2980     04A9  00B9               	movwf	_min+1
  2981     04AA                     l1998:
  2982                           
  2983                           ;main.c: 242:             sec = 0;
  2984     04AA  1283               	bcf	3,5	;RP0=0, select bank0
  2985     04AB  1303               	bcf	3,6	;RP1=0, select bank0
  2986     04AC  0829               	movf	set_time@key_count+1,w
  2987     04AD  3A80               	xorlw	128
  2988     04AE  00FF               	movwf	btemp+1
  2989     04AF  3080               	movlw	128
  2990     04B0  027F               	subwf	btemp+1,w
  2991     04B1  1D03               	skipz
  2992     04B2  2CB5               	goto	u1445
  2993     04B3  3002               	movlw	2
  2994     04B4  0228               	subwf	set_time@key_count,w
  2995     04B5                     u1445:
  2996     04B5  1803               	skipnc
  2997     04B6  2CB8               	goto	u1441
  2998     04B7  2CB9               	goto	u1440
  2999     04B8                     u1441:
  3000     04B8  2CBE               	goto	l2002
  3001     04B9                     u1440:
  3002     04B9                     l2000:
  3003                           
  3004                           ;main.c: 243:             key_count = 0;;main.c: 244:             blink_pos = 0;
  3005     04B9  1283               	bcf	3,5	;RP0=0, select bank0
  3006     04BA  1303               	bcf	3,6	;RP1=0, select bank0
  3007     04BB  01AA               	clrf	set_time@blink_pos
  3008     04BC  01AB               	clrf	set_time@blink_pos+1
  3009                           
  3010                           ;main.c: 245:         }
  3011     04BD  2D39               	goto	l2034
  3012     04BE                     l2002:
  3013     04BE  1283               	bcf	3,5	;RP0=0, select bank0
  3014     04BF  1303               	bcf	3,6	;RP1=0, select bank0
  3015     04C0  0829               	movf	set_time@key_count+1,w
  3016     04C1  3A80               	xorlw	128
  3017     04C2  00FF               	movwf	btemp+1
  3018     04C3  3080               	movlw	128
  3019     04C4  027F               	subwf	btemp+1,w
  3020     04C5  1D03               	skipz
  3021     04C6  2CC9               	goto	u1455
  3022     04C7  3003               	movlw	3
  3023     04C8  0228               	subwf	set_time@key_count,w
  3024     04C9                     u1455:
  3025     04C9  1C03               	skipc
  3026     04CA  2CCC               	goto	u1451
  3027     04CB  2CCD               	goto	u1450
  3028     04CC                     u1451:
  3029     04CC  2D39               	goto	l2034
  3030     04CD                     u1450:
  3031     04CD                     l2004:
  3032     04CD  1283               	bcf	3,5	;RP0=0, select bank0
  3033     04CE  1303               	bcf	3,6	;RP1=0, select bank0
  3034     04CF  0829               	movf	set_time@key_count+1,w
  3035     04D0  3A80               	xorlw	128
  3036     04D1  00FF               	movwf	btemp+1
  3037     04D2  3080               	movlw	128
  3038     04D3  027F               	subwf	btemp+1,w
  3039     04D4  1D03               	skipz
  3040     04D5  2CD8               	goto	u1465
  3041     04D6  3005               	movlw	5
  3042     04D7  0228               	subwf	set_time@key_count,w
  3043     04D8                     u1465:
  3044     04D8  1803               	skipnc
  3045     04D9  2CDB               	goto	u1461
  3046     04DA  2CDC               	goto	u1460
  3047     04DB                     u1461:
  3048     04DB  2D39               	goto	l2034
  3049     04DC                     u1460:
  3050     04DC                     l2006:
  3051                           
  3052                           ;main.c: 247:         {;main.c: 248:             min = 0;
  3053     04DC  3001               	movlw	1
  3054     04DD  1283               	bcf	3,5	;RP0=0, select bank0
  3055     04DE  1303               	bcf	3,6	;RP1=0, select bank0
  3056     04DF  00AA               	movwf	set_time@blink_pos
  3057     04E0  3000               	movlw	0
  3058     04E1  00AB               	movwf	set_time@blink_pos+1
  3059     04E2  2D39               	goto	l2034
  3060     04E3                     l2008:
  3061     04E3  302A               	movlw	42
  3062     04E4  0646               	xorwf	set_time@key,w
  3063     04E5  1D03               	btfss	3,2
  3064     04E6  2CE8               	goto	u1471
  3065     04E7  2CE9               	goto	u1470
  3066     04E8                     u1471:
  3067     04E8  2D26               	goto	l2024
  3068     04E9                     u1470:
  3069     04E9                     l2010:
  3070                           
  3071                           ;main.c: 253:     else if (key == '#');main.c: 254:     {
  3072     04E9  0829               	movf	set_time@key_count+1,w
  3073     04EA  3A80               	xorlw	128
  3074     04EB  00FF               	movwf	btemp+1
  3075     04EC  3080               	movlw	128
  3076     04ED  027F               	subwf	btemp+1,w
  3077     04EE  1D03               	skipz
  3078     04EF  2CF2               	goto	u1485
  3079     04F0  3003               	movlw	3
  3080     04F1  0228               	subwf	set_time@key_count,w
  3081     04F2                     u1485:
  3082     04F2  1803               	skipnc
  3083     04F3  2CF5               	goto	u1481
  3084     04F4  2CF6               	goto	u1480
  3085     04F5                     u1481:
  3086     04F5  2CFF               	goto	l2014
  3087     04F6                     u1480:
  3088     04F6                     l2012:
  3089                           
  3090                           ;main.c: 255:        clear_display();;main.c: 256:        TMR2ON = 1;
  3091     04F6  1283               	bcf	3,5	;RP0=0, select bank0
  3092     04F7  1303               	bcf	3,6	;RP1=0, select bank0
  3093     04F8  01B6               	clrf	_sec
  3094     04F9  01B7               	clrf	_sec+1
  3095                           
  3096                           ;main.c: 257:        RC2 = 1;
  3097     04FA  01A8               	clrf	set_time@key_count
  3098     04FB  01A9               	clrf	set_time@key_count+1
  3099                           
  3100                           ;main.c: 258:        operation_mode = 0x06;
  3101     04FC  01AA               	clrf	set_time@blink_pos
  3102     04FD  01AB               	clrf	set_time@blink_pos+1
  3103                           
  3104                           ;main.c: 259:     }
  3105     04FE  2D39               	goto	l2034
  3106     04FF                     l2014:
  3107     04FF  1283               	bcf	3,5	;RP0=0, select bank0
  3108     0500  1303               	bcf	3,6	;RP1=0, select bank0
  3109     0501  0829               	movf	set_time@key_count+1,w
  3110     0502  3A80               	xorlw	128
  3111     0503  00FF               	movwf	btemp+1
  3112     0504  3080               	movlw	128
  3113     0505  027F               	subwf	btemp+1,w
  3114     0506  1D03               	skipz
  3115     0507  2D0A               	goto	u1495
  3116     0508  3003               	movlw	3
  3117     0509  0228               	subwf	set_time@key_count,w
  3118     050A                     u1495:
  3119     050A  1C03               	skipc
  3120     050B  2D0D               	goto	u1491
  3121     050C  2D0E               	goto	u1490
  3122     050D                     u1491:
  3123     050D  2D39               	goto	l2034
  3124     050E                     u1490:
  3125     050E                     l2016:
  3126     050E  1283               	bcf	3,5	;RP0=0, select bank0
  3127     050F  1303               	bcf	3,6	;RP1=0, select bank0
  3128     0510  0829               	movf	set_time@key_count+1,w
  3129     0511  3A80               	xorlw	128
  3130     0512  00FF               	movwf	btemp+1
  3131     0513  3080               	movlw	128
  3132     0514  027F               	subwf	btemp+1,w
  3133     0515  1D03               	skipz
  3134     0516  2D19               	goto	u1505
  3135     0517  3005               	movlw	5
  3136     0518  0228               	subwf	set_time@key_count,w
  3137     0519                     u1505:
  3138     0519  1803               	skipnc
  3139     051A  2D1C               	goto	u1501
  3140     051B  2D1D               	goto	u1500
  3141     051C                     u1501:
  3142     051C  2D39               	goto	l2034
  3143     051D                     u1500:
  3144     051D                     l2018:
  3145                           
  3146                           ;main.c: 261:     sec_array[0] = sec / 10 + '0';;main.c: 262:     sec_array[1] = sec % 1
      +                          0 + '0';
  3147     051D  1283               	bcf	3,5	;RP0=0, select bank0
  3148     051E  1303               	bcf	3,6	;RP1=0, select bank0
  3149     051F  01B8               	clrf	_min
  3150     0520  01B9               	clrf	_min+1
  3151     0521                     l2020:
  3152                           
  3153                           ;main.c: 263:     sec_array[2] = '\0';
  3154     0521  3002               	movlw	2
  3155     0522  00A8               	movwf	set_time@key_count
  3156     0523  3000               	movlw	0
  3157     0524  00A9               	movwf	set_time@key_count+1
  3158     0525  2CDC               	goto	l2006
  3159     0526                     l2024:
  3160     0526  3023               	movlw	35
  3161     0527  0646               	xorwf	set_time@key,w
  3162     0528  1D03               	btfss	3,2
  3163     0529  2D2B               	goto	u1511
  3164     052A  2D2C               	goto	u1510
  3165     052B                     u1511:
  3166     052B  2D39               	goto	l2034
  3167     052C                     u1510:
  3168     052C                     l2026:
  3169                           
  3170                           ;main.c: 268:     if(wait++ == 50);main.c: 269:     {
  3171     052C  120A  158A  25C3  120A  118A  	fcall	_clear_display
  3172     0531                     l2028:
  3173                           
  3174                           ;main.c: 270:         wait = 0;
  3175     0531  1283               	bcf	3,5	;RP0=0, select bank0
  3176     0532  1303               	bcf	3,6	;RP1=0, select bank0
  3177     0533  1512               	bsf	18,2	;volatile
  3178     0534                     l2030:
  3179                           
  3180                           ;main.c: 271:         blink = !blink;
  3181     0534  1507               	bsf	7,2	;volatile
  3182     0535                     l2032:
  3183                           
  3184                           ;main.c: 272:         clcd_print(min_array,(0xC0 + 6));
  3185     0535  3006               	movlw	6
  3186     0536  00BC               	movwf	_operation_mode
  3187     0537  3000               	movlw	0
  3188     0538  00BD               	movwf	_operation_mode+1
  3189     0539                     l2034:
  3190                           
  3191                           ;main.c: 275:     if(blink)
  3192     0539  300A               	movlw	10
  3193     053A  00F0               	movwf	___awdiv@divisor
  3194     053B  3000               	movlw	0
  3195     053C  00F1               	movwf	___awdiv@divisor+1
  3196     053D  1283               	bcf	3,5	;RP0=0, select bank0
  3197     053E  1303               	bcf	3,6	;RP1=0, select bank0
  3198     053F  0837               	movf	_sec+1,w
  3199     0540  00F3               	movwf	___awdiv@dividend+1
  3200     0541  0836               	movf	_sec,w
  3201     0542  00F2               	movwf	___awdiv@dividend
  3202     0543  120A  158A  2799  120A  118A  	fcall	___awdiv
  3203     0548  0870               	movf	?___awdiv,w
  3204     0549  3E30               	addlw	48
  3205     054A  1283               	bcf	3,5	;RP0=0, select bank0
  3206     054B  1303               	bcf	3,6	;RP1=0, select bank0
  3207     054C  00C1               	movwf	_sec_array
  3208     054D                     l2036:
  3209                           
  3210                           ;main.c: 276:     {
  3211     054D  300A               	movlw	10
  3212     054E  00F8               	movwf	___awmod@divisor
  3213     054F  3000               	movlw	0
  3214     0550  00F9               	movwf	___awmod@divisor+1
  3215     0551  0837               	movf	_sec+1,w
  3216     0552  00FB               	movwf	___awmod@dividend+1
  3217     0553  0836               	movf	_sec,w
  3218     0554  00FA               	movwf	___awmod@dividend
  3219     0555  120A  118A  2006  120A  118A  	fcall	___awmod
  3220     055A  0878               	movf	?___awmod,w
  3221     055B  3E30               	addlw	48
  3222     055C  1283               	bcf	3,5	;RP0=0, select bank0
  3223     055D  1303               	bcf	3,6	;RP1=0, select bank0
  3224     055E  00C2               	movwf	_sec_array+1
  3225     055F                     l2038:
  3226                           
  3227                           ;main.c: 277:         switch(blink_pos)
  3228     055F  01C3               	clrf	_sec_array+2
  3229     0560                     l2040:
  3230                           
  3231                           ;main.c: 279:             case 0:
  3232     0560  300A               	movlw	10
  3233     0561  00F0               	movwf	___awdiv@divisor
  3234     0562  3000               	movlw	0
  3235     0563  00F1               	movwf	___awdiv@divisor+1
  3236     0564  0839               	movf	_min+1,w
  3237     0565  00F3               	movwf	___awdiv@dividend+1
  3238     0566  0838               	movf	_min,w
  3239     0567  00F2               	movwf	___awdiv@dividend
  3240     0568  120A  158A  2799  120A  118A  	fcall	___awdiv
  3241     056D  0870               	movf	?___awdiv,w
  3242     056E  3E30               	addlw	48
  3243     056F  1283               	bcf	3,5	;RP0=0, select bank0
  3244     0570  1303               	bcf	3,6	;RP1=0, select bank0
  3245     0571  00BE               	movwf	_min_array
  3246     0572                     l2042:
  3247                           
  3248                           ;main.c: 280:                 clcd_print("  ", (0xC0 + 9));
  3249     0572  300A               	movlw	10
  3250     0573  00F8               	movwf	___awmod@divisor
  3251     0574  3000               	movlw	0
  3252     0575  00F9               	movwf	___awmod@divisor+1
  3253     0576  0839               	movf	_min+1,w
  3254     0577  00FB               	movwf	___awmod@dividend+1
  3255     0578  0838               	movf	_min,w
  3256     0579  00FA               	movwf	___awmod@dividend
  3257     057A  120A  118A  2006  120A  118A  	fcall	___awmod
  3258     057F  0878               	movf	?___awmod,w
  3259     0580  3E30               	addlw	48
  3260     0581  1283               	bcf	3,5	;RP0=0, select bank0
  3261     0582  1303               	bcf	3,6	;RP1=0, select bank0
  3262     0583  00BF               	movwf	_min_array+1
  3263     0584                     l2044:
  3264                           
  3265                           ;main.c: 281:                 break;
  3266     0584  01C0               	clrf	_min_array+2
  3267     0585                     l2046:
  3268                           
  3269                           ;main.c: 282:             case 1:
  3270     0585  3001               	movlw	1
  3271     0586  07AC               	addwf	set_time@wait,f
  3272     0587  1803               	skipnc
  3273     0588  0AAD               	incf	set_time@wait+1,f
  3274     0589  3000               	movlw	0
  3275     058A  07AD               	addwf	set_time@wait+1,f
  3276     058B  3033               	movlw	51
  3277     058C  062C               	xorwf	set_time@wait,w
  3278     058D  042D               	iorwf	set_time@wait+1,w
  3279     058E  1D03               	btfss	3,2
  3280     058F  2D91               	goto	u1521
  3281     0590  2D92               	goto	u1520
  3282     0591                     u1521:
  3283     0591  2DB8               	goto	l2056
  3284     0592                     u1520:
  3285     0592                     l2048:
  3286                           
  3287                           ;main.c: 283:                 clcd_print("  ", (0xC0 + 6));;main.c: 284:                
      +                           break;
  3288     0592  01AC               	clrf	set_time@wait
  3289     0593  01AD               	clrf	set_time@wait+1
  3290     0594                     l2050:
  3291                           
  3292                           ;main.c: 285:         }
  3293     0594  082E               	movf	set_time@blink,w
  3294     0595  042F               	iorwf	set_time@blink+1,w
  3295     0596  1903               	btfsc	3,2
  3296     0597  2D99               	goto	u1531
  3297     0598  2D9B               	goto	u1530
  3298     0599                     u1531:
  3299     0599  3001               	movlw	1
  3300     059A  2D9C               	goto	u1540
  3301     059B                     u1530:
  3302     059B  3000               	movlw	0
  3303     059C                     u1540:
  3304     059C  00C4               	movwf	??_set_time
  3305     059D  01C5               	clrf	??_set_time+1
  3306     059E  0844               	movf	??_set_time,w
  3307     059F  00AE               	movwf	set_time@blink
  3308     05A0  0845               	movf	??_set_time+1,w
  3309     05A1  00AF               	movwf	set_time@blink+1
  3310     05A2                     l2052:
  3311                           
  3312                           ;main.c: 286:     }
  3313     05A2  303E               	movlw	(low (_min_array| 0))& (0+255)
  3314     05A3  00F4               	movwf	clcd_print@str
  3315     05A4  3000               	movlw	0
  3316     05A5  00F5               	movwf	clcd_print@str+1
  3317     05A6  30C6               	movlw	198
  3318     05A7  00F6               	movwf	clcd_print@addr
  3319     05A8  120A  158A  26A7  120A  118A  	fcall	_clcd_print
  3320     05AD                     l2054:
  3321                           
  3322                           ;main.c: 287: }
  3323     05AD  3041               	movlw	(low (_sec_array| 0))& (0+255)
  3324     05AE  00F4               	movwf	clcd_print@str
  3325     05AF  3000               	movlw	0
  3326     05B0  00F5               	movwf	clcd_print@str+1
  3327     05B1  30C9               	movlw	201
  3328     05B2  00F6               	movwf	clcd_print@addr
  3329     05B3  120A  158A  26A7  120A  118A  	fcall	_clcd_print
  3330     05B8                     l2056:
  3331                           
  3332                           ;main.c: 289: {
  3333     05B8  1283               	bcf	3,5	;RP0=0, select bank0
  3334     05B9  1303               	bcf	3,6	;RP1=0, select bank0
  3335     05BA  082E               	movf	set_time@blink,w
  3336     05BB  042F               	iorwf	set_time@blink+1,w
  3337     05BC  1903               	btfsc	3,2
  3338     05BD  2DBF               	goto	u1551
  3339     05BE  2DC0               	goto	u1550
  3340     05BF                     u1551:
  3341     05BF  2DE6               	goto	l160
  3342     05C0                     u1550:
  3343     05C0  2DD9               	goto	l2066
  3344     05C1                     l2060:
  3345                           
  3346                           ;main.c: 294:         TMR2ON = 0;
  3347     05C1  300E               	movlw	low ((STR_18+14)| (0+32768))
  3348     05C2  00F4               	movwf	clcd_print@str
  3349     05C3  3088               	movlw	high ((STR_18+14)| (0+32768))
  3350     05C4  00F5               	movwf	clcd_print@str+1
  3351     05C5  30C9               	movlw	201
  3352     05C6  00F6               	movwf	clcd_print@addr
  3353     05C7  120A  158A  26A7  120A  118A  	fcall	_clcd_print
  3354                           
  3355                           ;main.c: 295:         clear_display();
  3356     05CC  2DE6               	goto	l160
  3357     05CD                     l2062:
  3358                           
  3359                           ;main.c: 297:         clcd_print("  Please Close", (0x90 + 0));
  3360     05CD  300E               	movlw	low ((STR_18+14)| (0+32768))
  3361     05CE  00F4               	movwf	clcd_print@str
  3362     05CF  3088               	movlw	high ((STR_18+14)| (0+32768))
  3363     05D0  00F5               	movwf	clcd_print@str+1
  3364     05D1  30C6               	movlw	198
  3365     05D2  00F6               	movwf	clcd_print@addr
  3366     05D3  120A  158A  26A7  120A  118A  	fcall	_clcd_print
  3367                           
  3368                           ;main.c: 298:         while(RB3 == 0)
  3369     05D8  2DE6               	goto	l160
  3370     05D9                     l2066:
  3371                           
  3372                           ; Switch on 2 bytes has been partitioned into a top level switch of size 1, and 1 sub-sw
      +                          itches
  3373                           ; Switch size 1, requested type "simple"
  3374                           ; Number of cases is 1, Range of values is 0 to 0
  3375                           ; switch strategies available:
  3376                           ; Name         Instructions Cycles
  3377                           ; simple_byte            4     3 (average)
  3378                           ; direct_byte           11     8 (fixed)
  3379                           ; jumptable            260     6 (fixed)
  3380                           ;	Chosen strategy is simple_byte
  3381     05D9  082B               	movf	set_time@blink_pos+1,w
  3382     05DA  3A00               	xorlw	0	; case 0
  3383     05DB  1903               	skipnz
  3384     05DC  2DDE               	goto	l2524
  3385     05DD  2DE6               	goto	l160
  3386     05DE                     l2524:
  3387                           
  3388                           ; Switch size 1, requested type "simple"
  3389                           ; Number of cases is 2, Range of values is 0 to 1
  3390                           ; switch strategies available:
  3391                           ; Name         Instructions Cycles
  3392                           ; simple_byte            7     4 (average)
  3393                           ; direct_byte           14     8 (fixed)
  3394                           ; jumptable            260     6 (fixed)
  3395                           ;	Chosen strategy is simple_byte
  3396     05DE  082A               	movf	set_time@blink_pos,w
  3397     05DF  3A00               	xorlw	0	; case 0
  3398     05E0  1903               	skipnz
  3399     05E1  2DC1               	goto	l2060
  3400     05E2  3A01               	xorlw	1	; case 1
  3401     05E3  1903               	skipnz
  3402     05E4  2DCD               	goto	l2062
  3403     05E5  2DE6               	goto	l160
  3404     05E6                     l160:
  3405     05E6  0008               	return
  3406     05E7                     __end_of_set_time:
  3407                           
  3408                           	psect	text7
  3409     05E7                     __ptext7:	
  3410 ;; *************** function _set_temp *****************
  3411 ;; Defined at:
  3412 ;;		line 362 in file "main.c"
  3413 ;; Parameters:    Size  Location     Type
  3414 ;;  key             1    wreg     unsigned char 
  3415 ;; Auto vars:     Size  Location     Type
  3416 ;;  key             1    5[BANK0 ] unsigned char 
  3417 ;; Return value:  Size  Location     Type
  3418 ;;                  1    wreg      unsigned char 
  3419 ;; Registers used:
  3420 ;;		wreg, fsr0l, fsr0h, status,2, status,0, btemp+1, pclath, cstack
  3421 ;; Tracked objects:
  3422 ;;		On entry : 0/0
  3423 ;;		On exit  : 0/0
  3424 ;;		Unchanged: 0/0
  3425 ;; Data sizes:     COMMON   BANK0   BANK1   BANK3   BANK2
  3426 ;;      Params:         0       0       0       0       0
  3427 ;;      Locals:         0       1       0       0       0
  3428 ;;      Temps:          0       3       0       0       0
  3429 ;;      Totals:         0       4       0       0       0
  3430 ;;Total ram usage:        4 bytes
  3431 ;; Hardware stack levels used: 1
  3432 ;; Hardware stack levels required when called: 3
  3433 ;; This function calls:
  3434 ;;		___awdiv
  3435 ;;		___awmod
  3436 ;;		___wmul
  3437 ;;		_clcd_print
  3438 ;;		_clcd_putch
  3439 ;;		_clear_display
  3440 ;;		_door_status_check
  3441 ;; This function is called by:
  3442 ;;		_opearation_call
  3443 ;; This function uses a non-reentrant model
  3444 ;;
  3445                           
  3446     05E7                     _set_temp:	
  3447                           ;psect for function _set_temp
  3448                           
  3449                           
  3450                           ;incstack = 0
  3451                           ; Regs used in _set_temp: [wreg-fsr0h+status,2+status,0+btemp+1+pclath+cstack]
  3452                           ;set_temp@key stored from wreg
  3453     05E7  1283               	bcf	3,5	;RP0=0, select bank0
  3454     05E8  1303               	bcf	3,6	;RP1=0, select bank0
  3455     05E9  00C9               	movwf	set_temp@key
  3456     05EA                     l2072:
  3457                           
  3458                           ;main.c: 362:         clcd_print(" TEMP : 000", (0xC0 + 0));;main.c: 363:         clcd_p
      +                          rint("*:CLEAR  #:ENTER", (0xD0 + 0));;main.c: 364: ;main.c: 365:     }
  3459     05EA  3014               	movlw	20
  3460     05EB  063A               	xorwf	_reset_flag,w
  3461     05EC  043B               	iorwf	_reset_flag+1,w
  3462     05ED  1D03               	btfss	3,2
  3463     05EE  2DF0               	goto	u1561
  3464     05EF  2DF1               	goto	u1560
  3465     05F0                     u1561:
  3466     05F0  2E31               	goto	l2094
  3467     05F1                     u1560:
  3468     05F1                     l2074:
  3469                           
  3470                           ;main.c: 366:      if(key != 0xFF && key != '*' && key != '#');main.c: 368: 
  3471     05F1  30FF               	movlw	255
  3472     05F2  00C9               	movwf	set_temp@key
  3473     05F3                     l2076:
  3474                           
  3475                           ;main.c: 369:         key_count++;
  3476     05F3  01A2               	clrf	set_temp@key_count
  3477     05F4  01A3               	clrf	set_temp@key_count+1
  3478     05F5                     l2078:
  3479                           
  3480                           ;main.c: 370:         if(key_count <= 3)
  3481     05F5  01A6               	clrf	set_temp@blink
  3482     05F6  01A7               	clrf	set_temp@blink+1
  3483     05F7                     l2080:
  3484                           
  3485                           ;main.c: 371:         {
  3486     05F7  01A0               	clrf	set_temp@temp
  3487     05F8  01A1               	clrf	set_temp@temp+1
  3488     05F9                     l2082:
  3489                           
  3490                           ;main.c: 372:         temp = temp * 10 + key;
  3491     05F9  01A4               	clrf	set_temp@wait
  3492     05FA  01A5               	clrf	set_temp@wait+1
  3493     05FB                     l2084:
  3494                           
  3495                           ;main.c: 373: 
  3496     05FB  30B4               	movlw	low (STR_20| (0+32768))
  3497     05FC  00F4               	movwf	clcd_print@str
  3498     05FD  3088               	movlw	high (STR_20| (0+32768))
  3499     05FE  00F5               	movwf	clcd_print@str+1
  3500     05FF  3080               	movlw	128
  3501     0600  00F6               	movwf	clcd_print@addr
  3502     0601  120A  158A  26A7  120A  118A  	fcall	_clcd_print
  3503     0606                     l2086:
  3504                           
  3505                           ;main.c: 374:         }
  3506     0606  308C               	movlw	140
  3507     0607  1283               	bcf	3,5	;RP0=0, select bank0
  3508     0608  1303               	bcf	3,6	;RP1=0, select bank0
  3509     0609  00C4               	movwf	clcd_putch@addr
  3510     060A  30DF               	movlw	223
  3511     060B  120A  158A  25FB  120A  118A  	fcall	_clcd_putch
  3512     0610                     l2088:
  3513                           
  3514                           ;main.c: 375: 
  3515     0610  302F               	movlw	low (STR_21| (0+32768))
  3516     0611  00F4               	movwf	clcd_print@str
  3517     0612  3089               	movlw	high (STR_21| (0+32768))
  3518     0613  00F5               	movwf	clcd_print@str+1
  3519     0614  308D               	movlw	141
  3520     0615  00F6               	movwf	clcd_print@addr
  3521     0616  120A  158A  26A7  120A  118A  	fcall	_clcd_print
  3522     061B                     l2090:
  3523                           
  3524                           ;main.c: 376:     }
  3525     061B  30EB               	movlw	low (STR_22| (0+32768))
  3526     061C  00F4               	movwf	clcd_print@str
  3527     061D  3088               	movlw	high (STR_22| (0+32768))
  3528     061E  00F5               	movwf	clcd_print@str+1
  3529     061F  30C0               	movlw	192
  3530     0620  00F6               	movwf	clcd_print@addr
  3531     0621  120A  158A  26A7  120A  118A  	fcall	_clcd_print
  3532     0626                     l2092:
  3533                           
  3534                           ;main.c: 377:      else if(key == '*')
  3535     0626  3066               	movlw	low (STR_10| (0+32768))
  3536     0627  00F4               	movwf	clcd_print@str
  3537     0628  3088               	movlw	high (STR_10| (0+32768))
  3538     0629  00F5               	movwf	clcd_print@str+1
  3539     062A  30D0               	movlw	208
  3540     062B  00F6               	movwf	clcd_print@addr
  3541     062C  120A  158A  26A7  120A  118A  	fcall	_clcd_print
  3542     0631                     l2094:
  3543                           
  3544                           ;main.c: 380:          temp = 0;
  3545     0631  1283               	bcf	3,5	;RP0=0, select bank0
  3546     0632  1303               	bcf	3,6	;RP1=0, select bank0
  3547     0633  0A49               	incf	set_temp@key,w
  3548     0634  1903               	btfsc	3,2
  3549     0635  2E37               	goto	u1571
  3550     0636  2E38               	goto	u1570
  3551     0637                     u1571:
  3552     0637  2E71               	goto	l2106
  3553     0638                     u1570:
  3554     0638                     l2096:
  3555     0638  302A               	movlw	42
  3556     0639  0649               	xorwf	set_temp@key,w
  3557     063A  1903               	btfsc	3,2
  3558     063B  2E3D               	goto	u1581
  3559     063C  2E3E               	goto	u1580
  3560     063D                     u1581:
  3561     063D  2E71               	goto	l2106
  3562     063E                     u1580:
  3563     063E                     l2098:
  3564     063E  3023               	movlw	35
  3565     063F  0649               	xorwf	set_temp@key,w
  3566     0640  1903               	btfsc	3,2
  3567     0641  2E43               	goto	u1591
  3568     0642  2E44               	goto	u1590
  3569     0643                     u1591:
  3570     0643  2E71               	goto	l2106
  3571     0644                     u1590:
  3572     0644                     l2100:
  3573                           
  3574                           ;main.c: 381:      };main.c: 383:     {
  3575     0644  3001               	movlw	1
  3576     0645  07A2               	addwf	set_temp@key_count,f
  3577     0646  1803               	skipnc
  3578     0647  0AA3               	incf	set_temp@key_count+1,f
  3579     0648  3000               	movlw	0
  3580     0649  07A3               	addwf	set_temp@key_count+1,f
  3581     064A                     l2102:
  3582                           
  3583                           ;main.c: 384:        clear_display();
  3584     064A  0823               	movf	set_temp@key_count+1,w
  3585     064B  3A80               	xorlw	128
  3586     064C  00FF               	movwf	btemp+1
  3587     064D  3080               	movlw	128
  3588     064E  027F               	subwf	btemp+1,w
  3589     064F  1D03               	skipz
  3590     0650  2E53               	goto	u1605
  3591     0651  3004               	movlw	4
  3592     0652  0222               	subwf	set_temp@key_count,w
  3593     0653                     u1605:
  3594     0653  1803               	skipnc
  3595     0654  2E56               	goto	u1601
  3596     0655  2E57               	goto	u1600
  3597     0656                     u1601:
  3598     0656  2F66               	goto	l2158
  3599     0657                     u1600:
  3600     0657                     l2104:
  3601                           
  3602                           ;main.c: 385:        if(temp > 250);main.c: 386:        {
  3603     0657  1283               	bcf	3,5	;RP0=0, select bank0
  3604     0658  1303               	bcf	3,6	;RP1=0, select bank0
  3605     0659  0821               	movf	set_temp@temp+1,w
  3606     065A  00F1               	movwf	___wmul@multiplier+1
  3607     065B  0820               	movf	set_temp@temp,w
  3608     065C  00F0               	movwf	___wmul@multiplier
  3609     065D  300A               	movlw	10
  3610     065E  00F2               	movwf	___wmul@multiplicand
  3611     065F  3000               	movlw	0
  3612     0660  00F3               	movwf	___wmul@multiplicand+1
  3613     0661  120A  158A  262E  120A  118A  	fcall	___wmul
  3614     0666  1283               	bcf	3,5	;RP0=0, select bank0
  3615     0667  1303               	bcf	3,6	;RP1=0, select bank0
  3616     0668  0849               	movf	set_temp@key,w
  3617     0669  0770               	addwf	?___wmul,w
  3618     066A  00A0               	movwf	set_temp@temp
  3619     066B  3000               	movlw	0
  3620     066C  1803               	skipnc
  3621     066D  3001               	movlw	1
  3622     066E  0771               	addwf	?___wmul+1,w
  3623     066F  00A1               	movwf	set_temp@temp+1
  3624     0670  2F66               	goto	l2158
  3625     0671                     l2106:
  3626     0671  302A               	movlw	42
  3627     0672  0649               	xorwf	set_temp@key,w
  3628     0673  1D03               	btfss	3,2
  3629     0674  2E76               	goto	u1611
  3630     0675  2E77               	goto	u1610
  3631     0676                     u1611:
  3632     0676  2E7C               	goto	l2110
  3633     0677                     u1610:
  3634     0677                     l2108:
  3635                           
  3636                           ;main.c: 392:             return 1;;main.c: 393:        }
  3637     0677  01A2               	clrf	set_temp@key_count
  3638     0678  01A3               	clrf	set_temp@key_count+1
  3639                           
  3640                           ;main.c: 394:        else
  3641     0679  01A0               	clrf	set_temp@temp
  3642     067A  01A1               	clrf	set_temp@temp+1
  3643                           
  3644                           ;main.c: 395:        {
  3645     067B  2F66               	goto	l2158
  3646     067C                     l2110:
  3647     067C  3023               	movlw	35
  3648     067D  0649               	xorwf	set_temp@key,w
  3649     067E  1D03               	btfss	3,2
  3650     067F  2E81               	goto	u1621
  3651     0680  2E82               	goto	u1620
  3652     0681                     u1621:
  3653     0681  2F66               	goto	l2158
  3654     0682                     u1620:
  3655     0682                     l2112:
  3656                           
  3657                           ;main.c: 397:            sec = 50;;main.c: 398:            TMR2ON = 1;
  3658     0682  120A  158A  25C3  120A  118A  	fcall	_clear_display
  3659     0687                     l2114:
  3660                           
  3661                           ;main.c: 399:            clcd_print("Time Rem.=", (0x90 + 0));
  3662     0687  1283               	bcf	3,5	;RP0=0, select bank0
  3663     0688  1303               	bcf	3,6	;RP1=0, select bank0
  3664     0689  0821               	movf	set_temp@temp+1,w
  3665     068A  3A80               	xorlw	128
  3666     068B  00FF               	movwf	btemp+1
  3667     068C  3080               	movlw	128
  3668     068D  027F               	subwf	btemp+1,w
  3669     068E  1D03               	skipz
  3670     068F  2E92               	goto	u1635
  3671     0690  30FB               	movlw	251
  3672     0691  0220               	subwf	set_temp@temp,w
  3673     0692                     u1635:
  3674     0692  1C03               	skipc
  3675     0693  2E95               	goto	u1631
  3676     0694  2E96               	goto	u1630
  3677     0695                     u1631:
  3678     0695  2EBC               	goto	l2132
  3679     0696                     u1630:
  3680     0696                     l2116:
  3681                           
  3682                           ;main.c: 400: ;main.c: 401:            while(sec)
  3683     0696  3096               	movlw	low (STR_24| (0+32768))
  3684     0697  00F4               	movwf	clcd_print@str
  3685     0698  3088               	movlw	high (STR_24| (0+32768))
  3686     0699  00F5               	movwf	clcd_print@str+1
  3687     069A  30C0               	movlw	192
  3688     069B  00F6               	movwf	clcd_print@addr
  3689     069C  120A  158A  26A7  120A  118A  	fcall	_clcd_print
  3690     06A1                     l2118:
  3691                           
  3692                           ;main.c: 402:            {
  3693     06A1  1283               	bcf	3,5	;RP0=0, select bank0
  3694     06A2  1303               	bcf	3,6	;RP1=0, select bank0
  3695     06A3  1487               	bsf	7,1	;volatile
  3696     06A4                     l2120:
  3697                           
  3698                           ;main.c: 403:                RB3 = door_status_check();
  3699     06A4  3033               	movlw	51
  3700     06A5  1283               	bcf	3,5	;RP0=0, select bank0
  3701     06A6  1303               	bcf	3,6	;RP1=0, select bank0
  3702     06A7  00C8               	movwf	??_set_temp+2
  3703     06A8  30BB               	movlw	187
  3704     06A9  00C7               	movwf	??_set_temp+1
  3705     06AA  30DF               	movlw	223
  3706     06AB  00C6               	movwf	??_set_temp
  3707     06AC                     u2147:
  3708     06AC  0BC6               	decfsz	??_set_temp,f
  3709     06AD  2EAC               	goto	u2147
  3710     06AE  0BC7               	decfsz	??_set_temp+1,f
  3711     06AF  2EAC               	goto	u2147
  3712     06B0  0BC8               	decfsz	??_set_temp+2,f
  3713     06B1  2EAC               	goto	u2147
  3714     06B2                     l2122:
  3715                           
  3716                           ;main.c: 404:                if(RB3 == 1)
  3717     06B2  1283               	bcf	3,5	;RP0=0, select bank0
  3718     06B3  1303               	bcf	3,6	;RP1=0, select bank0
  3719     06B4  1087               	bcf	7,1	;volatile
  3720     06B5                     l2124:
  3721                           
  3722                           ;main.c: 405:                {
  3723     06B5  120A  158A  25C3  120A  118A  	fcall	_clear_display
  3724     06BA                     l2126:
  3725                           
  3726                           ;main.c: 406:                   clcd_print("  Pre-Heating", (0x80 + 0));
  3727     06BA  3001               	movlw	1
  3728     06BB  2FEC               	goto	l190
  3729     06BC                     l2132:
  3730                           
  3731                           ;main.c: 409:                clcd_putch((sec / 100 + '0'), (0x90 + 10));;main.c: 410:   
      +                                       clcd_putch((sec/10) % 10 + '0', (0x90 + 11));
  3732     06BC  30D0               	movlw	low (STR_25| (0+32768))
  3733     06BD  00F4               	movwf	clcd_print@str
  3734     06BE  3088               	movlw	high (STR_25| (0+32768))
  3735     06BF  00F5               	movwf	clcd_print@str+1
  3736     06C0  3080               	movlw	128
  3737     06C1  00F6               	movwf	clcd_print@addr
  3738     06C2  120A  158A  26A7  120A  118A  	fcall	_clcd_print
  3739     06C7                     l2134:
  3740                           
  3741                           ;main.c: 411:                clcd_putch(sec%10 + '0', (0x90 + 12));
  3742     06C7  3032               	movlw	50
  3743     06C8  1283               	bcf	3,5	;RP0=0, select bank0
  3744     06C9  1303               	bcf	3,6	;RP1=0, select bank0
  3745     06CA  00B6               	movwf	_sec
  3746     06CB  3000               	movlw	0
  3747     06CC  00B7               	movwf	_sec+1
  3748     06CD                     l2136:
  3749                           
  3750                           ;main.c: 412:            }
  3751     06CD  1512               	bsf	18,2	;volatile
  3752     06CE                     l2138:
  3753                           
  3754                           ;main.c: 413:            return 0;
  3755     06CE  3003               	movlw	low (STR_26| (0+32768))
  3756     06CF  00F4               	movwf	clcd_print@str
  3757     06D0  3089               	movlw	high (STR_26| (0+32768))
  3758     06D1  00F5               	movwf	clcd_print@str+1
  3759     06D2  3090               	movlw	144
  3760     06D3  00F6               	movwf	clcd_print@addr
  3761     06D4  120A  158A  26A7  120A  118A  	fcall	_clcd_print
  3762                           
  3763                           ;main.c: 415: 
  3764     06D9  2F5C               	goto	l2152
  3765     06DA                     l2140:
  3766                           
  3767                           ;main.c: 416:     };main.c: 417: 
  3768     06DA  120A  158A  270C  120A  118A  	fcall	_door_status_check
  3769     06DF  1283               	bcf	3,5	;RP0=0, select bank0
  3770     06E0  1303               	bcf	3,6	;RP1=0, select bank0
  3771     06E1  00C6               	movwf	??_set_temp
  3772     06E2  0C46               	rrf	??_set_temp,w
  3773     06E3  1803               	btfsc	3,0
  3774     06E4  2EE6               	goto	u1641
  3775     06E5  2EEA               	goto	u1640
  3776     06E6                     u1641:
  3777     06E6  1283               	bcf	3,5	;RP0=0, select bank0
  3778     06E7  1303               	bcf	3,6	;RP1=0, select bank0
  3779     06E8  1586               	bsf	6,3	;volatile
  3780     06E9  2EED               	goto	u1654
  3781     06EA                     u1640:
  3782     06EA  1283               	bcf	3,5	;RP0=0, select bank0
  3783     06EB  1303               	bcf	3,6	;RP1=0, select bank0
  3784     06EC  1186               	bcf	6,3	;volatile
  3785     06ED                     u1654:
  3786     06ED                     l2142:
  3787                           
  3788                           ;main.c: 418:      if(wait++ == 25)
  3789     06ED  1D86               	btfss	6,3	;volatile
  3790     06EE  2EF0               	goto	u1661
  3791     06EF  2EF1               	goto	u1660
  3792     06F0                     u1661:
  3793     06F0  2F07               	goto	l2146
  3794     06F1                     u1660:
  3795     06F1                     l2144:
  3796                           
  3797                           ;main.c: 419:     {;main.c: 420:         wait = 0;
  3798     06F1  30D0               	movlw	low (STR_25| (0+32768))
  3799     06F2  00F4               	movwf	clcd_print@str
  3800     06F3  3088               	movlw	high (STR_25| (0+32768))
  3801     06F4  00F5               	movwf	clcd_print@str+1
  3802     06F5  3080               	movlw	128
  3803     06F6  00F6               	movwf	clcd_print@addr
  3804     06F7  120A  158A  26A7  120A  118A  	fcall	_clcd_print
  3805                           
  3806                           ;main.c: 421:         blink = !blink;
  3807     06FC  3003               	movlw	low (STR_26| (0+32768))
  3808     06FD  00F4               	movwf	clcd_print@str
  3809     06FE  3089               	movlw	high (STR_26| (0+32768))
  3810     06FF  00F5               	movwf	clcd_print@str+1
  3811     0700  3090               	movlw	144
  3812     0701  00F6               	movwf	clcd_print@addr
  3813     0702  120A  158A  26A7  120A  118A  	fcall	_clcd_print
  3814     0707                     l2146:
  3815                           
  3816                           ;main.c: 423:         clcd_putch((temp/10) % 10 + '0', (0xC0 + 9));
  3817     0707  309A               	movlw	154
  3818     0708  1283               	bcf	3,5	;RP0=0, select bank0
  3819     0709  1303               	bcf	3,6	;RP1=0, select bank0
  3820     070A  00C4               	movwf	clcd_putch@addr
  3821     070B  3064               	movlw	100
  3822     070C  00F0               	movwf	___awdiv@divisor
  3823     070D  3000               	movlw	0
  3824     070E  00F1               	movwf	___awdiv@divisor+1
  3825     070F  0837               	movf	_sec+1,w
  3826     0710  00F3               	movwf	___awdiv@dividend+1
  3827     0711  0836               	movf	_sec,w
  3828     0712  00F2               	movwf	___awdiv@dividend
  3829     0713  120A  158A  2799  120A  118A  	fcall	___awdiv
  3830     0718  0870               	movf	?___awdiv,w
  3831     0719  3E30               	addlw	48
  3832     071A  120A  158A  25FB  120A  118A  	fcall	_clcd_putch
  3833     071F                     l2148:
  3834                           
  3835                           ;main.c: 424:         clcd_putch(temp%10 + '0', (0xC0 + 10));
  3836     071F  309B               	movlw	155
  3837     0720  1283               	bcf	3,5	;RP0=0, select bank0
  3838     0721  1303               	bcf	3,6	;RP1=0, select bank0
  3839     0722  00C4               	movwf	clcd_putch@addr
  3840     0723  300A               	movlw	10
  3841     0724  00F8               	movwf	___awmod@divisor
  3842     0725  3000               	movlw	0
  3843     0726  00F9               	movwf	___awmod@divisor+1
  3844     0727  300A               	movlw	10
  3845     0728  00F0               	movwf	___awdiv@divisor
  3846     0729  3000               	movlw	0
  3847     072A  00F1               	movwf	___awdiv@divisor+1
  3848     072B  0837               	movf	_sec+1,w
  3849     072C  00F3               	movwf	___awdiv@dividend+1
  3850     072D  0836               	movf	_sec,w
  3851     072E  00F2               	movwf	___awdiv@dividend
  3852     072F  120A  158A  2799  120A  118A  	fcall	___awdiv
  3853     0734  0871               	movf	?___awdiv+1,w
  3854     0735  00FB               	movwf	___awmod@dividend+1
  3855     0736  0870               	movf	?___awdiv,w
  3856     0737  00FA               	movwf	___awmod@dividend
  3857     0738  120A  118A  2006  120A  118A  	fcall	___awmod
  3858     073D  0878               	movf	?___awmod,w
  3859     073E  3E30               	addlw	48
  3860     073F  120A  158A  25FB  120A  118A  	fcall	_clcd_putch
  3861     0744                     l2150:
  3862                           
  3863                           ;main.c: 425: 
  3864     0744  309C               	movlw	156
  3865     0745  1283               	bcf	3,5	;RP0=0, select bank0
  3866     0746  1303               	bcf	3,6	;RP1=0, select bank0
  3867     0747  00C4               	movwf	clcd_putch@addr
  3868     0748  300A               	movlw	10
  3869     0749  00F8               	movwf	___awmod@divisor
  3870     074A  3000               	movlw	0
  3871     074B  00F9               	movwf	___awmod@divisor+1
  3872     074C  0837               	movf	_sec+1,w
  3873     074D  00FB               	movwf	___awmod@dividend+1
  3874     074E  0836               	movf	_sec,w
  3875     074F  00FA               	movwf	___awmod@dividend
  3876     0750  120A  118A  2006  120A  118A  	fcall	___awmod
  3877     0755  0878               	movf	?___awmod,w
  3878     0756  3E30               	addlw	48
  3879     0757  120A  158A  25FB  120A  118A  	fcall	_clcd_putch
  3880     075C                     l2152:
  3881                           
  3882                           ;main.c: 415: 
  3883     075C  1283               	bcf	3,5	;RP0=0, select bank0
  3884     075D  1303               	bcf	3,6	;RP1=0, select bank0
  3885     075E  0836               	movf	_sec,w
  3886     075F  0437               	iorwf	_sec+1,w
  3887     0760  1D03               	btfss	3,2
  3888     0761  2F63               	goto	u1671
  3889     0762  2F64               	goto	u1670
  3890     0763                     u1671:
  3891     0763  2EDA               	goto	l2140
  3892     0764                     u1670:
  3893     0764                     l2154:
  3894                           
  3895                           ;main.c: 427:     }
  3896     0764  3000               	movlw	0
  3897     0765  2FEC               	goto	l190
  3898     0766                     l2158:
  3899                           
  3900                           ;main.c: 432:     return 0x11;
  3901     0766  3001               	movlw	1
  3902     0767  1283               	bcf	3,5	;RP0=0, select bank0
  3903     0768  1303               	bcf	3,6	;RP1=0, select bank0
  3904     0769  07A4               	addwf	set_temp@wait,f
  3905     076A  1803               	skipnc
  3906     076B  0AA5               	incf	set_temp@wait+1,f
  3907     076C  3000               	movlw	0
  3908     076D  07A5               	addwf	set_temp@wait+1,f
  3909     076E  301A               	movlw	26
  3910     076F  0624               	xorwf	set_temp@wait,w
  3911     0770  0425               	iorwf	set_temp@wait+1,w
  3912     0771  1D03               	btfss	3,2
  3913     0772  2F74               	goto	u1681
  3914     0773  2F75               	goto	u1680
  3915     0774                     u1681:
  3916     0774  2FD8               	goto	l2170
  3917     0775                     u1680:
  3918     0775                     l2160:
  3919                           
  3920                           ;main.c: 433: }
  3921     0775  01A4               	clrf	set_temp@wait
  3922     0776  01A5               	clrf	set_temp@wait+1
  3923     0777                     l2162:
  3924     0777  0826               	movf	set_temp@blink,w
  3925     0778  0427               	iorwf	set_temp@blink+1,w
  3926     0779  1903               	btfsc	3,2
  3927     077A  2F7C               	goto	u1691
  3928     077B  2F7E               	goto	u1690
  3929     077C                     u1691:
  3930     077C  3001               	movlw	1
  3931     077D  2F7F               	goto	u1700
  3932     077E                     u1690:
  3933     077E  3000               	movlw	0
  3934     077F                     u1700:
  3935     077F  00C6               	movwf	??_set_temp
  3936     0780  01C7               	clrf	??_set_temp+1
  3937     0781  0846               	movf	??_set_temp,w
  3938     0782  00A6               	movwf	set_temp@blink
  3939     0783  0847               	movf	??_set_temp+1,w
  3940     0784  00A7               	movwf	set_temp@blink+1
  3941     0785                     l2164:
  3942     0785  30C8               	movlw	200
  3943     0786  00C4               	movwf	clcd_putch@addr
  3944     0787  3064               	movlw	100
  3945     0788  00F0               	movwf	___awdiv@divisor
  3946     0789  3000               	movlw	0
  3947     078A  00F1               	movwf	___awdiv@divisor+1
  3948     078B  0821               	movf	set_temp@temp+1,w
  3949     078C  00F3               	movwf	___awdiv@dividend+1
  3950     078D  0820               	movf	set_temp@temp,w
  3951     078E  00F2               	movwf	___awdiv@dividend
  3952     078F  120A  158A  2799  120A  118A  	fcall	___awdiv
  3953     0794  0870               	movf	?___awdiv,w
  3954     0795  3E30               	addlw	48
  3955     0796  120A  158A  25FB  120A  118A  	fcall	_clcd_putch
  3956     079B                     l2166:
  3957     079B  30C9               	movlw	201
  3958     079C  1283               	bcf	3,5	;RP0=0, select bank0
  3959     079D  1303               	bcf	3,6	;RP1=0, select bank0
  3960     079E  00C4               	movwf	clcd_putch@addr
  3961     079F  300A               	movlw	10
  3962     07A0  00F8               	movwf	___awmod@divisor
  3963     07A1  3000               	movlw	0
  3964     07A2  00F9               	movwf	___awmod@divisor+1
  3965     07A3  300A               	movlw	10
  3966     07A4  00F0               	movwf	___awdiv@divisor
  3967     07A5  3000               	movlw	0
  3968     07A6  00F1               	movwf	___awdiv@divisor+1
  3969     07A7  0821               	movf	set_temp@temp+1,w
  3970     07A8  00F3               	movwf	___awdiv@dividend+1
  3971     07A9  0820               	movf	set_temp@temp,w
  3972     07AA  00F2               	movwf	___awdiv@dividend
  3973     07AB  120A  158A  2799  120A  118A  	fcall	___awdiv
  3974     07B0  0871               	movf	?___awdiv+1,w
  3975     07B1  00FB               	movwf	___awmod@dividend+1
  3976     07B2  0870               	movf	?___awdiv,w
  3977     07B3  00FA               	movwf	___awmod@dividend
  3978     07B4  120A  118A  2006  120A  118A  	fcall	___awmod
  3979     07B9  0878               	movf	?___awmod,w
  3980     07BA  3E30               	addlw	48
  3981     07BB  120A  158A  25FB  120A  118A  	fcall	_clcd_putch
  3982     07C0                     l2168:
  3983     07C0  30CA               	movlw	202
  3984     07C1  1283               	bcf	3,5	;RP0=0, select bank0
  3985     07C2  1303               	bcf	3,6	;RP1=0, select bank0
  3986     07C3  00C4               	movwf	clcd_putch@addr
  3987     07C4  300A               	movlw	10
  3988     07C5  00F8               	movwf	___awmod@divisor
  3989     07C6  3000               	movlw	0
  3990     07C7  00F9               	movwf	___awmod@divisor+1
  3991     07C8  0821               	movf	set_temp@temp+1,w
  3992     07C9  00FB               	movwf	___awmod@dividend+1
  3993     07CA  0820               	movf	set_temp@temp,w
  3994     07CB  00FA               	movwf	___awmod@dividend
  3995     07CC  120A  118A  2006  120A  118A  	fcall	___awmod
  3996     07D1  0878               	movf	?___awmod,w
  3997     07D2  3E30               	addlw	48
  3998     07D3  120A  158A  25FB  120A  118A  	fcall	_clcd_putch
  3999     07D8                     l2170:
  4000     07D8  1283               	bcf	3,5	;RP0=0, select bank0
  4001     07D9  1303               	bcf	3,6	;RP1=0, select bank0
  4002     07DA  0826               	movf	set_temp@blink,w
  4003     07DB  0427               	iorwf	set_temp@blink+1,w
  4004     07DC  1903               	btfsc	3,2
  4005     07DD  2FDF               	goto	u1711
  4006     07DE  2FE0               	goto	u1710
  4007     07DF                     u1711:
  4008     07DF  2FEB               	goto	l2174
  4009     07E0                     u1710:
  4010     07E0                     l2172:
  4011     07E0  300D               	movlw	low ((STR_18+13)| (0+32768))
  4012     07E1  00F4               	movwf	clcd_print@str
  4013     07E2  3088               	movlw	high ((STR_18+13)| (0+32768))
  4014     07E3  00F5               	movwf	clcd_print@str+1
  4015     07E4  30C8               	movlw	200
  4016     07E5  00F6               	movwf	clcd_print@addr
  4017     07E6  120A  158A  26A7  120A  118A  	fcall	_clcd_print
  4018     07EB                     l2174:
  4019     07EB  3011               	movlw	17
  4020     07EC                     l190:
  4021     07EC  0008               	return
  4022     07ED                     __end_of_set_temp:
  4023                           
  4024                           	psect	text8
  4025     0F0C                     __ptext8:	
  4026 ;; *************** function _door_status_check *****************
  4027 ;; Defined at:
  4028 ;;		line 302 in file "main.c"
  4029 ;; Parameters:    Size  Location     Type
  4030 ;;		None
  4031 ;; Auto vars:     Size  Location     Type
  4032 ;;		None
  4033 ;; Return value:  Size  Location     Type
  4034 ;;                  1    wreg      unsigned char 
  4035 ;; Registers used:
  4036 ;;		wreg, fsr0l, fsr0h, status,2, status,0, btemp+1, pclath, cstack
  4037 ;; Tracked objects:
  4038 ;;		On entry : 0/0
  4039 ;;		On exit  : 0/0
  4040 ;;		Unchanged: 0/0
  4041 ;; Data sizes:     COMMON   BANK0   BANK1   BANK3   BANK2
  4042 ;;      Params:         0       0       0       0       0
  4043 ;;      Locals:         0       0       0       0       0
  4044 ;;      Temps:          0       0       0       0       0
  4045 ;;      Totals:         0       0       0       0       0
  4046 ;;Total ram usage:        0 bytes
  4047 ;; Hardware stack levels used: 1
  4048 ;; Hardware stack levels required when called: 2
  4049 ;; This function calls:
  4050 ;;		_clcd_print
  4051 ;;		_clear_display
  4052 ;; This function is called by:
  4053 ;;		_time_display
  4054 ;;		_set_temp
  4055 ;; This function uses a non-reentrant model
  4056 ;;
  4057                           
  4058     0F0C                     _door_status_check:	
  4059                           ;psect for function _door_status_check
  4060                           
  4061     0F0C                     l1750:	
  4062                           ;incstack = 0
  4063                           ; Regs used in _door_status_check: [wreg-fsr0h+status,2+status,0+btemp+1+pclath+cstack]
  4064                           
  4065                           
  4066                           ;main.c: 304:         RC1 = 0;
  4067     0F0C  1283               	bcf	3,5	;RP0=0, select bank0
  4068     0F0D  1303               	bcf	3,6	;RP1=0, select bank0
  4069     0F0E  1986               	btfsc	6,3	;volatile
  4070     0F0F  2F11               	goto	u1101
  4071     0F10  2F12               	goto	u1100
  4072     0F11                     u1101:
  4073     0F11  2F40               	goto	l1768
  4074     0F12                     u1100:
  4075     0F12                     l1752:
  4076                           
  4077                           ;main.c: 305:         RC2 = 1;;main.c: 306: 
  4078     0F12  1487               	bsf	7,1	;volatile
  4079                           
  4080                           ;main.c: 307:     }
  4081     0F13  1107               	bcf	7,2	;volatile
  4082                           
  4083                           ;main.c: 308:     return 1;
  4084     0F14  1112               	bcf	18,2	;volatile
  4085     0F15                     l1754:
  4086                           
  4087                           ;main.c: 309: 
  4088     0F15  120A  158A  25C3  120A  158A  	fcall	_clear_display
  4089     0F1A                     l1756:
  4090                           
  4091                           ;main.c: 310: 
  4092     0F1A  3055               	movlw	low (STR_13| (0+32768))
  4093     0F1B  00F4               	movwf	clcd_print@str
  4094     0F1C  3088               	movlw	high (STR_13| (0+32768))
  4095     0F1D  00F5               	movwf	clcd_print@str+1
  4096     0F1E  30C0               	movlw	192
  4097     0F1F  00F6               	movwf	clcd_print@addr
  4098     0F20  120A  158A  26A7  120A  158A  	fcall	_clcd_print
  4099     0F25                     l1758:
  4100                           
  4101                           ;main.c: 311: }
  4102     0F25  30A5               	movlw	low (STR_14| (0+32768))
  4103     0F26  00F4               	movwf	clcd_print@str
  4104     0F27  3088               	movlw	high (STR_14| (0+32768))
  4105     0F28  00F5               	movwf	clcd_print@str+1
  4106     0F29  3090               	movlw	144
  4107     0F2A  00F6               	movwf	clcd_print@addr
  4108     0F2B  120A  158A  26A7  120A  158A  	fcall	_clcd_print
  4109     0F30                     l164:	
  4110                           ;main.c: 313: {;main.c: 315:     clcd_print(" TIME = ", (0x80 + 0));
  4111                           
  4112                           
  4113                           ;main.c: 312: void time_display(void)
  4114     0F30  1283               	bcf	3,5	;RP0=0, select bank0
  4115     0F31  1303               	bcf	3,6	;RP1=0, select bank0
  4116     0F32  1D86               	btfss	6,3	;volatile
  4117     0F33  2F35               	goto	u1111
  4118     0F34  2F36               	goto	u1110
  4119     0F35                     u1111:
  4120     0F35  2F30               	goto	l164
  4121     0F36                     u1110:
  4122     0F36                     l1760:
  4123                           
  4124                           ;main.c: 316:     min_array[0] = min / 10 + '0';
  4125     0F36  120A  158A  25C3  120A  158A  	fcall	_clear_display
  4126     0F3B                     l1762:
  4127                           
  4128                           ;main.c: 317:     min_array[1] = min % 10 + '0';
  4129     0F3B  1283               	bcf	3,5	;RP0=0, select bank0
  4130     0F3C  1303               	bcf	3,6	;RP1=0, select bank0
  4131     0F3D  1512               	bsf	18,2	;volatile
  4132     0F3E                     l1764:
  4133                           
  4134                           ;main.c: 318:     min_array[2] = '\0';
  4135     0F3E  1087               	bcf	7,1	;volatile
  4136     0F3F                     l1766:
  4137                           
  4138                           ;main.c: 319:     clcd_print(min_array, (0x80 + 9));
  4139     0F3F  1507               	bsf	7,2	;volatile
  4140     0F40                     l1768:
  4141                           
  4142                           ;main.c: 322: 
  4143     0F40  3001               	movlw	1
  4144     0F41                     l167:
  4145     0F41  0008               	return
  4146     0F42                     __end_of_door_status_check:
  4147                           
  4148                           	psect	text9
  4149     0DC3                     __ptext9:	
  4150 ;; *************** function _clear_display *****************
  4151 ;; Defined at:
  4152 ;;		line 207 in file "main.c"
  4153 ;; Parameters:    Size  Location     Type
  4154 ;;		None
  4155 ;; Auto vars:     Size  Location     Type
  4156 ;;		None
  4157 ;; Return value:  Size  Location     Type
  4158 ;;                  1    wreg      void 
  4159 ;; Registers used:
  4160 ;;		wreg, status,2, status,0, pclath, cstack
  4161 ;; Tracked objects:
  4162 ;;		On entry : 0/0
  4163 ;;		On exit  : 0/0
  4164 ;;		Unchanged: 0/0
  4165 ;; Data sizes:     COMMON   BANK0   BANK1   BANK3   BANK2
  4166 ;;      Params:         0       0       0       0       0
  4167 ;;      Locals:         0       0       0       0       0
  4168 ;;      Temps:          0       0       0       0       0
  4169 ;;      Totals:         0       0       0       0       0
  4170 ;;Total ram usage:        0 bytes
  4171 ;; Hardware stack levels used: 1
  4172 ;; Hardware stack levels required when called: 1
  4173 ;; This function calls:
  4174 ;;		_clcd_write
  4175 ;; This function is called by:
  4176 ;;		_main
  4177 ;;		_opearation_call
  4178 ;;		_set_time
  4179 ;;		_door_status_check
  4180 ;;		_time_display
  4181 ;;		_set_temp
  4182 ;; This function uses a non-reentrant model
  4183 ;;
  4184                           
  4185     0DC3                     _clear_display:	
  4186                           ;psect for function _clear_display
  4187                           
  4188     0DC3                     l1738:	
  4189                           ;incstack = 0
  4190                           ; Regs used in _clear_display: [wreg+status,2+status,0+pclath+cstack]
  4191                           
  4192                           
  4193                           ;main.c: 208:         blink_pos = 0;
  4194     0DC3  01F0               	clrf	clcd_write@mode
  4195     0DC4  3001               	movlw	1
  4196     0DC5  120A  158A  26D6  120A  158A  	fcall	_clcd_write
  4197     0DCA                     l128:
  4198     0DCA  0008               	return
  4199     0DCB                     __end_of_clear_display:
  4200                           
  4201                           	psect	text10
  4202     0DFB                     __ptext10:	
  4203 ;; *************** function _clcd_putch *****************
  4204 ;; Defined at:
  4205 ;;		line 63 in file "clcd.c"
  4206 ;; Parameters:    Size  Location     Type
  4207 ;;  data            1    wreg     const unsigned char 
  4208 ;;  addr            1    0[BANK0 ] unsigned char 
  4209 ;; Auto vars:     Size  Location     Type
  4210 ;;  data            1    1[BANK0 ] const unsigned char 
  4211 ;; Return value:  Size  Location     Type
  4212 ;;                  1    wreg      void 
  4213 ;; Registers used:
  4214 ;;		wreg, status,2, status,0, pclath, cstack
  4215 ;; Tracked objects:
  4216 ;;		On entry : 0/0
  4217 ;;		On exit  : 0/0
  4218 ;;		Unchanged: 0/0
  4219 ;; Data sizes:     COMMON   BANK0   BANK1   BANK3   BANK2
  4220 ;;      Params:         0       1       0       0       0
  4221 ;;      Locals:         0       1       0       0       0
  4222 ;;      Temps:          0       0       0       0       0
  4223 ;;      Totals:         0       2       0       0       0
  4224 ;;Total ram usage:        2 bytes
  4225 ;; Hardware stack levels used: 1
  4226 ;; Hardware stack levels required when called: 1
  4227 ;; This function calls:
  4228 ;;		_clcd_write
  4229 ;; This function is called by:
  4230 ;;		_power_on_screen
  4231 ;;		_time_display
  4232 ;;		_set_temp
  4233 ;; This function uses a non-reentrant model
  4234 ;;
  4235                           
  4236     0DFB                     _clcd_putch:	
  4237                           ;psect for function _clcd_putch
  4238                           
  4239                           
  4240                           ;incstack = 0
  4241                           ; Regs used in _clcd_putch: [wreg+status,2+status,0+pclath+cstack]
  4242                           ;clcd_putch@data stored from wreg
  4243     0DFB  1283               	bcf	3,5	;RP0=0, select bank0
  4244     0DFC  1303               	bcf	3,6	;RP1=0, select bank0
  4245     0DFD  00C5               	movwf	clcd_putch@data
  4246     0DFE                     l1748:
  4247                           
  4248                           ;clcd.c: 63: void clcd_putch(const char data, unsigned char addr);clcd.c: 64: {;clcd.c: 
      +                          65:     clcd_write(addr, 0);
  4249     0DFE  01F0               	clrf	clcd_write@mode
  4250     0DFF  0844               	movf	clcd_putch@addr,w
  4251     0E00  120A  158A  26D6  120A  158A  	fcall	_clcd_write
  4252                           
  4253                           ;clcd.c: 66:     clcd_write(data, 1);
  4254     0E05  01F0               	clrf	clcd_write@mode
  4255     0E06  0AF0               	incf	clcd_write@mode,f
  4256     0E07  1283               	bcf	3,5	;RP0=0, select bank0
  4257     0E08  1303               	bcf	3,6	;RP1=0, select bank0
  4258     0E09  0845               	movf	clcd_putch@data,w
  4259     0E0A  120A  158A  26D6  120A  158A  	fcall	_clcd_write
  4260     0E0F                     l223:
  4261     0E0F  0008               	return
  4262     0E10                     __end_of_clcd_putch:
  4263                           
  4264                           	psect	text11
  4265     0E2E                     __ptext11:	
  4266 ;; *************** function ___wmul *****************
  4267 ;; Defined at:
  4268 ;;		line 15 in file "C:\Program Files\Microchip\xc8\v2.41\pic\sources\c90\common\Umul16.c"
  4269 ;; Parameters:    Size  Location     Type
  4270 ;;  multiplier      2    0[COMMON] unsigned int 
  4271 ;;  multiplicand    2    2[COMMON] unsigned int 
  4272 ;; Auto vars:     Size  Location     Type
  4273 ;;  product         2    4[COMMON] unsigned int 
  4274 ;; Return value:  Size  Location     Type
  4275 ;;                  2    0[COMMON] unsigned int 
  4276 ;; Registers used:
  4277 ;;		wreg, status,2, status,0
  4278 ;; Tracked objects:
  4279 ;;		On entry : 0/0
  4280 ;;		On exit  : 0/0
  4281 ;;		Unchanged: 0/0
  4282 ;; Data sizes:     COMMON   BANK0   BANK1   BANK3   BANK2
  4283 ;;      Params:         4       0       0       0       0
  4284 ;;      Locals:         2       0       0       0       0
  4285 ;;      Temps:          0       0       0       0       0
  4286 ;;      Totals:         6       0       0       0       0
  4287 ;;Total ram usage:        6 bytes
  4288 ;; Hardware stack levels used: 1
  4289 ;; This function calls:
  4290 ;;		Nothing
  4291 ;; This function is called by:
  4292 ;;		_set_time
  4293 ;;		_set_temp
  4294 ;; This function uses a non-reentrant model
  4295 ;;
  4296                           
  4297     0E2E                     ___wmul:	
  4298                           ;psect for function ___wmul
  4299                           
  4300     0E2E                     l1792:	
  4301                           ;incstack = 0
  4302                           ; Regs used in ___wmul: [wreg+status,2+status,0]
  4303                           
  4304     0E2E  01F4               	clrf	___wmul@product
  4305     0E2F  01F5               	clrf	___wmul@product+1
  4306     0E30                     l1794:
  4307     0E30  1C70               	btfss	___wmul@multiplier,0
  4308     0E31  2E33               	goto	u1121
  4309     0E32  2E34               	goto	u1120
  4310     0E33                     u1121:
  4311     0E33  2E3A               	goto	l396
  4312     0E34                     u1120:
  4313     0E34                     l1796:
  4314     0E34  0872               	movf	___wmul@multiplicand,w
  4315     0E35  07F4               	addwf	___wmul@product,f
  4316     0E36  1803               	skipnc
  4317     0E37  0AF5               	incf	___wmul@product+1,f
  4318     0E38  0873               	movf	___wmul@multiplicand+1,w
  4319     0E39  07F5               	addwf	___wmul@product+1,f
  4320     0E3A                     l396:
  4321     0E3A  3001               	movlw	1
  4322     0E3B                     u1135:
  4323     0E3B  1003               	clrc
  4324     0E3C  0DF2               	rlf	___wmul@multiplicand,f
  4325     0E3D  0DF3               	rlf	___wmul@multiplicand+1,f
  4326     0E3E  3EFF               	addlw	-1
  4327     0E3F  1D03               	skipz
  4328     0E40  2E3B               	goto	u1135
  4329     0E41                     l1798:
  4330     0E41  3001               	movlw	1
  4331     0E42                     u1145:
  4332     0E42  1003               	clrc
  4333     0E43  0CF1               	rrf	___wmul@multiplier+1,f
  4334     0E44  0CF0               	rrf	___wmul@multiplier,f
  4335     0E45  3EFF               	addlw	-1
  4336     0E46  1D03               	skipz
  4337     0E47  2E42               	goto	u1145
  4338     0E48                     l1800:
  4339     0E48  0870               	movf	___wmul@multiplier,w
  4340     0E49  0471               	iorwf	___wmul@multiplier+1,w
  4341     0E4A  1D03               	btfss	3,2
  4342     0E4B  2E4D               	goto	u1151
  4343     0E4C  2E4E               	goto	u1150
  4344     0E4D                     u1151:
  4345     0E4D  2E30               	goto	l1794
  4346     0E4E                     u1150:
  4347     0E4E                     l1802:
  4348     0E4E  0875               	movf	___wmul@product+1,w
  4349     0E4F  00F1               	movwf	?___wmul+1
  4350     0E50  0874               	movf	___wmul@product,w
  4351     0E51  00F0               	movwf	?___wmul
  4352     0E52                     l398:
  4353     0E52  0008               	return
  4354     0E53                     __end_of___wmul:
  4355                           
  4356                           	psect	text12
  4357     0006                     __ptext12:	
  4358 ;; *************** function ___awmod *****************
  4359 ;; Defined at:
  4360 ;;		line 5 in file "C:\Program Files\Microchip\xc8\v2.41\pic\sources\c90\common\awmod.c"
  4361 ;; Parameters:    Size  Location     Type
  4362 ;;  divisor         2    8[COMMON] int 
  4363 ;;  dividend        2   10[COMMON] int 
  4364 ;; Auto vars:     Size  Location     Type
  4365 ;;  sign            1   13[COMMON] unsigned char 
  4366 ;;  counter         1   12[COMMON] unsigned char 
  4367 ;; Return value:  Size  Location     Type
  4368 ;;                  2    8[COMMON] int 
  4369 ;; Registers used:
  4370 ;;		wreg, status,2, status,0, btemp+1
  4371 ;; Tracked objects:
  4372 ;;		On entry : 0/0
  4373 ;;		On exit  : 0/0
  4374 ;;		Unchanged: 0/0
  4375 ;; Data sizes:     COMMON   BANK0   BANK1   BANK3   BANK2
  4376 ;;      Params:         4       0       0       0       0
  4377 ;;      Locals:         2       0       0       0       0
  4378 ;;      Temps:          0       0       0       0       0
  4379 ;;      Totals:         6       0       0       0       0
  4380 ;;Total ram usage:        6 bytes
  4381 ;; Hardware stack levels used: 1
  4382 ;; This function calls:
  4383 ;;		Nothing
  4384 ;; This function is called by:
  4385 ;;		_set_time
  4386 ;;		_time_display
  4387 ;;		_set_temp
  4388 ;; This function uses a non-reentrant model
  4389 ;;
  4390                           
  4391     0006                     ___awmod:	
  4392                           ;psect for function ___awmod
  4393                           
  4394     0006                     l1850:	
  4395                           ;incstack = 0
  4396                           ; Regs used in ___awmod: [wreg+status,2+status,0+btemp+1]
  4397                           
  4398     0006  01FD               	clrf	___awmod@sign
  4399     0007                     l1852:
  4400     0007  1FFB               	btfss	___awmod@dividend+1,7
  4401     0008  280A               	goto	u1261
  4402     0009  280B               	goto	u1260
  4403     000A                     u1261:
  4404     000A  2812               	goto	l1858
  4405     000B                     u1260:
  4406     000B                     l1854:
  4407     000B  09FA               	comf	___awmod@dividend,f
  4408     000C  09FB               	comf	___awmod@dividend+1,f
  4409     000D  0AFA               	incf	___awmod@dividend,f
  4410     000E  1903               	skipnz
  4411     000F  0AFB               	incf	___awmod@dividend+1,f
  4412     0010                     l1856:
  4413     0010  01FD               	clrf	___awmod@sign
  4414     0011  0AFD               	incf	___awmod@sign,f
  4415     0012                     l1858:
  4416     0012  1FF9               	btfss	___awmod@divisor+1,7
  4417     0013  2815               	goto	u1271
  4418     0014  2816               	goto	u1270
  4419     0015                     u1271:
  4420     0015  281B               	goto	l1862
  4421     0016                     u1270:
  4422     0016                     l1860:
  4423     0016  09F8               	comf	___awmod@divisor,f
  4424     0017  09F9               	comf	___awmod@divisor+1,f
  4425     0018  0AF8               	incf	___awmod@divisor,f
  4426     0019  1903               	skipnz
  4427     001A  0AF9               	incf	___awmod@divisor+1,f
  4428     001B                     l1862:
  4429     001B  0878               	movf	___awmod@divisor,w
  4430     001C  0479               	iorwf	___awmod@divisor+1,w
  4431     001D  1903               	btfsc	3,2
  4432     001E  2820               	goto	u1281
  4433     001F  2821               	goto	u1280
  4434     0020                     u1281:
  4435     0020  2850               	goto	l1880
  4436     0021                     u1280:
  4437     0021                     l1864:
  4438     0021  01FC               	clrf	___awmod@counter
  4439     0022  0AFC               	incf	___awmod@counter,f
  4440     0023  282F               	goto	l1870
  4441     0024                     l1866:
  4442     0024  3001               	movlw	1
  4443     0025                     u1295:
  4444     0025  1003               	clrc
  4445     0026  0DF8               	rlf	___awmod@divisor,f
  4446     0027  0DF9               	rlf	___awmod@divisor+1,f
  4447     0028  3EFF               	addlw	-1
  4448     0029  1D03               	skipz
  4449     002A  2825               	goto	u1295
  4450     002B                     l1868:
  4451     002B  3001               	movlw	1
  4452     002C  00FF               	movwf	btemp+1
  4453     002D  087F               	movf	btemp+1,w
  4454     002E  07FC               	addwf	___awmod@counter,f
  4455     002F                     l1870:
  4456     002F  1FF9               	btfss	___awmod@divisor+1,7
  4457     0030  2832               	goto	u1301
  4458     0031  2833               	goto	u1300
  4459     0032                     u1301:
  4460     0032  2824               	goto	l1866
  4461     0033                     u1300:
  4462     0033                     l1872:
  4463     0033  0879               	movf	___awmod@divisor+1,w
  4464     0034  027B               	subwf	___awmod@dividend+1,w
  4465     0035  1D03               	skipz
  4466     0036  2839               	goto	u1315
  4467     0037  0878               	movf	___awmod@divisor,w
  4468     0038  027A               	subwf	___awmod@dividend,w
  4469     0039                     u1315:
  4470     0039  1C03               	skipc
  4471     003A  283C               	goto	u1311
  4472     003B  283D               	goto	u1310
  4473     003C                     u1311:
  4474     003C  2843               	goto	l1876
  4475     003D                     u1310:
  4476     003D                     l1874:
  4477     003D  0878               	movf	___awmod@divisor,w
  4478     003E  02FA               	subwf	___awmod@dividend,f
  4479     003F  0879               	movf	___awmod@divisor+1,w
  4480     0040  1C03               	skipc
  4481     0041  03FB               	decf	___awmod@dividend+1,f
  4482     0042  02FB               	subwf	___awmod@dividend+1,f
  4483     0043                     l1876:
  4484     0043  3001               	movlw	1
  4485     0044                     u1325:
  4486     0044  1003               	clrc
  4487     0045  0CF9               	rrf	___awmod@divisor+1,f
  4488     0046  0CF8               	rrf	___awmod@divisor,f
  4489     0047  3EFF               	addlw	-1
  4490     0048  1D03               	skipz
  4491     0049  2844               	goto	u1325
  4492     004A                     l1878:
  4493     004A  3001               	movlw	1
  4494     004B  02FC               	subwf	___awmod@counter,f
  4495     004C  1D03               	btfss	3,2
  4496     004D  284F               	goto	u1331
  4497     004E  2850               	goto	u1330
  4498     004F                     u1331:
  4499     004F  2833               	goto	l1872
  4500     0050                     u1330:
  4501     0050                     l1880:
  4502     0050  087D               	movf	___awmod@sign,w
  4503     0051  1903               	btfsc	3,2
  4504     0052  2854               	goto	u1341
  4505     0053  2855               	goto	u1340
  4506     0054                     u1341:
  4507     0054  285A               	goto	l1884
  4508     0055                     u1340:
  4509     0055                     l1882:
  4510     0055  09FA               	comf	___awmod@dividend,f
  4511     0056  09FB               	comf	___awmod@dividend+1,f
  4512     0057  0AFA               	incf	___awmod@dividend,f
  4513     0058  1903               	skipnz
  4514     0059  0AFB               	incf	___awmod@dividend+1,f
  4515     005A                     l1884:
  4516     005A  087B               	movf	___awmod@dividend+1,w
  4517     005B  00F9               	movwf	?___awmod+1
  4518     005C  087A               	movf	___awmod@dividend,w
  4519     005D  00F8               	movwf	?___awmod
  4520     005E                     l562:
  4521     005E  0008               	return
  4522     005F                     __end_of___awmod:
  4523                           
  4524                           	psect	text13
  4525     0F99                     __ptext13:	
  4526 ;; *************** function ___awdiv *****************
  4527 ;; Defined at:
  4528 ;;		line 5 in file "C:\Program Files\Microchip\xc8\v2.41\pic\sources\c90\common\awdiv.c"
  4529 ;; Parameters:    Size  Location     Type
  4530 ;;  divisor         2    0[COMMON] int 
  4531 ;;  dividend        2    2[COMMON] int 
  4532 ;; Auto vars:     Size  Location     Type
  4533 ;;  quotient        2    6[COMMON] int 
  4534 ;;  sign            1    5[COMMON] unsigned char 
  4535 ;;  counter         1    4[COMMON] unsigned char 
  4536 ;; Return value:  Size  Location     Type
  4537 ;;                  2    0[COMMON] int 
  4538 ;; Registers used:
  4539 ;;		wreg, status,2, status,0, btemp+1
  4540 ;; Tracked objects:
  4541 ;;		On entry : 0/0
  4542 ;;		On exit  : 0/0
  4543 ;;		Unchanged: 0/0
  4544 ;; Data sizes:     COMMON   BANK0   BANK1   BANK3   BANK2
  4545 ;;      Params:         4       0       0       0       0
  4546 ;;      Locals:         4       0       0       0       0
  4547 ;;      Temps:          0       0       0       0       0
  4548 ;;      Totals:         8       0       0       0       0
  4549 ;;Total ram usage:        8 bytes
  4550 ;; Hardware stack levels used: 1
  4551 ;; This function calls:
  4552 ;;		Nothing
  4553 ;; This function is called by:
  4554 ;;		_set_time
  4555 ;;		_time_display
  4556 ;;		_set_temp
  4557 ;; This function uses a non-reentrant model
  4558 ;;
  4559                           
  4560     0F99                     ___awdiv:	
  4561                           ;psect for function ___awdiv
  4562                           
  4563     0F99                     l1806:	
  4564                           ;incstack = 0
  4565                           ; Regs used in ___awdiv: [wreg+status,2+status,0+btemp+1]
  4566                           
  4567     0F99  01F5               	clrf	___awdiv@sign
  4568     0F9A                     l1808:
  4569     0F9A  1FF1               	btfss	___awdiv@divisor+1,7
  4570     0F9B  2F9D               	goto	u1161
  4571     0F9C  2F9E               	goto	u1160
  4572     0F9D                     u1161:
  4573     0F9D  2FA5               	goto	l1814
  4574     0F9E                     u1160:
  4575     0F9E                     l1810:
  4576     0F9E  09F0               	comf	___awdiv@divisor,f
  4577     0F9F  09F1               	comf	___awdiv@divisor+1,f
  4578     0FA0  0AF0               	incf	___awdiv@divisor,f
  4579     0FA1  1903               	skipnz
  4580     0FA2  0AF1               	incf	___awdiv@divisor+1,f
  4581     0FA3                     l1812:
  4582     0FA3  01F5               	clrf	___awdiv@sign
  4583     0FA4  0AF5               	incf	___awdiv@sign,f
  4584     0FA5                     l1814:
  4585     0FA5  1FF3               	btfss	___awdiv@dividend+1,7
  4586     0FA6  2FA8               	goto	u1171
  4587     0FA7  2FA9               	goto	u1170
  4588     0FA8                     u1171:
  4589     0FA8  2FB2               	goto	l1820
  4590     0FA9                     u1170:
  4591     0FA9                     l1816:
  4592     0FA9  09F2               	comf	___awdiv@dividend,f
  4593     0FAA  09F3               	comf	___awdiv@dividend+1,f
  4594     0FAB  0AF2               	incf	___awdiv@dividend,f
  4595     0FAC  1903               	skipnz
  4596     0FAD  0AF3               	incf	___awdiv@dividend+1,f
  4597     0FAE                     l1818:
  4598     0FAE  3001               	movlw	1
  4599     0FAF  00FF               	movwf	btemp+1
  4600     0FB0  087F               	movf	btemp+1,w
  4601     0FB1  06F5               	xorwf	___awdiv@sign,f
  4602     0FB2                     l1820:
  4603     0FB2  01F6               	clrf	___awdiv@quotient
  4604     0FB3  01F7               	clrf	___awdiv@quotient+1
  4605     0FB4                     l1822:
  4606     0FB4  0870               	movf	___awdiv@divisor,w
  4607     0FB5  0471               	iorwf	___awdiv@divisor+1,w
  4608     0FB6  1903               	btfsc	3,2
  4609     0FB7  2FB9               	goto	u1181
  4610     0FB8  2FBA               	goto	u1180
  4611     0FB9                     u1181:
  4612     0FB9  2FF1               	goto	l1842
  4613     0FBA                     u1180:
  4614     0FBA                     l1824:
  4615     0FBA  01F4               	clrf	___awdiv@counter
  4616     0FBB  0AF4               	incf	___awdiv@counter,f
  4617     0FBC  2FC8               	goto	l1830
  4618     0FBD                     l1826:
  4619     0FBD  3001               	movlw	1
  4620     0FBE                     u1195:
  4621     0FBE  1003               	clrc
  4622     0FBF  0DF0               	rlf	___awdiv@divisor,f
  4623     0FC0  0DF1               	rlf	___awdiv@divisor+1,f
  4624     0FC1  3EFF               	addlw	-1
  4625     0FC2  1D03               	skipz
  4626     0FC3  2FBE               	goto	u1195
  4627     0FC4                     l1828:
  4628     0FC4  3001               	movlw	1
  4629     0FC5  00FF               	movwf	btemp+1
  4630     0FC6  087F               	movf	btemp+1,w
  4631     0FC7  07F4               	addwf	___awdiv@counter,f
  4632     0FC8                     l1830:
  4633     0FC8  1FF1               	btfss	___awdiv@divisor+1,7
  4634     0FC9  2FCB               	goto	u1201
  4635     0FCA  2FCC               	goto	u1200
  4636     0FCB                     u1201:
  4637     0FCB  2FBD               	goto	l1826
  4638     0FCC                     u1200:
  4639     0FCC                     l1832:
  4640     0FCC  3001               	movlw	1
  4641     0FCD                     u1215:
  4642     0FCD  1003               	clrc
  4643     0FCE  0DF6               	rlf	___awdiv@quotient,f
  4644     0FCF  0DF7               	rlf	___awdiv@quotient+1,f
  4645     0FD0  3EFF               	addlw	-1
  4646     0FD1  1D03               	skipz
  4647     0FD2  2FCD               	goto	u1215
  4648     0FD3  0871               	movf	___awdiv@divisor+1,w
  4649     0FD4  0273               	subwf	___awdiv@dividend+1,w
  4650     0FD5  1D03               	skipz
  4651     0FD6  2FD9               	goto	u1225
  4652     0FD7  0870               	movf	___awdiv@divisor,w
  4653     0FD8  0272               	subwf	___awdiv@dividend,w
  4654     0FD9                     u1225:
  4655     0FD9  1C03               	skipc
  4656     0FDA  2FDC               	goto	u1221
  4657     0FDB  2FDD               	goto	u1220
  4658     0FDC                     u1221:
  4659     0FDC  2FE4               	goto	l1838
  4660     0FDD                     u1220:
  4661     0FDD                     l1834:
  4662     0FDD  0870               	movf	___awdiv@divisor,w
  4663     0FDE  02F2               	subwf	___awdiv@dividend,f
  4664     0FDF  0871               	movf	___awdiv@divisor+1,w
  4665     0FE0  1C03               	skipc
  4666     0FE1  03F3               	decf	___awdiv@dividend+1,f
  4667     0FE2  02F3               	subwf	___awdiv@dividend+1,f
  4668     0FE3                     l1836:
  4669     0FE3  1476               	bsf	___awdiv@quotient,0
  4670     0FE4                     l1838:
  4671     0FE4  3001               	movlw	1
  4672     0FE5                     u1235:
  4673     0FE5  1003               	clrc
  4674     0FE6  0CF1               	rrf	___awdiv@divisor+1,f
  4675     0FE7  0CF0               	rrf	___awdiv@divisor,f
  4676     0FE8  3EFF               	addlw	-1
  4677     0FE9  1D03               	skipz
  4678     0FEA  2FE5               	goto	u1235
  4679     0FEB                     l1840:
  4680     0FEB  3001               	movlw	1
  4681     0FEC  02F4               	subwf	___awdiv@counter,f
  4682     0FED  1D03               	btfss	3,2
  4683     0FEE  2FF0               	goto	u1241
  4684     0FEF  2FF1               	goto	u1240
  4685     0FF0                     u1241:
  4686     0FF0  2FCC               	goto	l1832
  4687     0FF1                     u1240:
  4688     0FF1                     l1842:
  4689     0FF1  0875               	movf	___awdiv@sign,w
  4690     0FF2  1903               	btfsc	3,2
  4691     0FF3  2FF5               	goto	u1251
  4692     0FF4  2FF6               	goto	u1250
  4693     0FF5                     u1251:
  4694     0FF5  2FFB               	goto	l1846
  4695     0FF6                     u1250:
  4696     0FF6                     l1844:
  4697     0FF6  09F6               	comf	___awdiv@quotient,f
  4698     0FF7  09F7               	comf	___awdiv@quotient+1,f
  4699     0FF8  0AF6               	incf	___awdiv@quotient,f
  4700     0FF9  1903               	skipnz
  4701     0FFA  0AF7               	incf	___awdiv@quotient+1,f
  4702     0FFB                     l1846:
  4703     0FFB  0877               	movf	___awdiv@quotient+1,w
  4704     0FFC  00F1               	movwf	?___awdiv+1
  4705     0FFD  0876               	movf	___awdiv@quotient,w
  4706     0FFE  00F0               	movwf	?___awdiv
  4707     0FFF                     l549:
  4708     0FFF  0008               	return
  4709     1000                     __end_of___awdiv:
  4710                           
  4711                           	psect	text14
  4712     0E7A                     __ptext14:	
  4713 ;; *************** function _cooking_mode_display *****************
  4714 ;; Defined at:
  4715 ;;		line 200 in file "main.c"
  4716 ;; Parameters:    Size  Location     Type
  4717 ;;		None
  4718 ;; Auto vars:     Size  Location     Type
  4719 ;;		None
  4720 ;; Return value:  Size  Location     Type
  4721 ;;                  1    wreg      void 
  4722 ;; Registers used:
  4723 ;;		wreg, fsr0l, fsr0h, status,2, status,0, btemp+1, pclath, cstack
  4724 ;; Tracked objects:
  4725 ;;		On entry : 0/0
  4726 ;;		On exit  : 0/0
  4727 ;;		Unchanged: 0/0
  4728 ;; Data sizes:     COMMON   BANK0   BANK1   BANK3   BANK2
  4729 ;;      Params:         0       0       0       0       0
  4730 ;;      Locals:         0       0       0       0       0
  4731 ;;      Temps:          0       0       0       0       0
  4732 ;;      Totals:         0       0       0       0       0
  4733 ;;Total ram usage:        0 bytes
  4734 ;; Hardware stack levels used: 1
  4735 ;; Hardware stack levels required when called: 2
  4736 ;; This function calls:
  4737 ;;		_clcd_print
  4738 ;; This function is called by:
  4739 ;;		_opearation_call
  4740 ;; This function uses a non-reentrant model
  4741 ;;
  4742                           
  4743     0E7A                     _cooking_mode_display:	
  4744                           ;psect for function _cooking_mode_display
  4745                           
  4746     0E7A                     l1916:	
  4747                           ;incstack = 0
  4748                           ; Regs used in _cooking_mode_display: [wreg-fsr0h+status,2+status,0+btemp+1+pclath+cstac
      +                          k]
  4749                           
  4750                           
  4751                           ;main.c: 201:     {
  4752     0E7A  301F               	movlw	low (STR_4| (0+32768))
  4753     0E7B  00F4               	movwf	clcd_print@str
  4754     0E7C  3089               	movlw	high (STR_4| (0+32768))
  4755     0E7D  00F5               	movwf	clcd_print@str+1
  4756     0E7E  3080               	movlw	128
  4757     0E7F  00F6               	movwf	clcd_print@addr
  4758     0E80  120A  158A  26A7  120A  158A  	fcall	_clcd_print
  4759                           
  4760                           ;main.c: 202: 
  4761     0E85  3017               	movlw	low (STR_5| (0+32768))
  4762     0E86  00F4               	movwf	clcd_print@str
  4763     0E87  3089               	movlw	high (STR_5| (0+32768))
  4764     0E88  00F5               	movwf	clcd_print@str+1
  4765     0E89  30C0               	movlw	192
  4766     0E8A  00F6               	movwf	clcd_print@addr
  4767     0E8B  120A  158A  26A7  120A  158A  	fcall	_clcd_print
  4768                           
  4769                           ;main.c: 203:         key = 0xFF;
  4770     0E90  30DE               	movlw	low (STR_6| (0+32768))
  4771     0E91  00F4               	movwf	clcd_print@str
  4772     0E92  3088               	movlw	high (STR_6| (0+32768))
  4773     0E93  00F5               	movwf	clcd_print@str+1
  4774     0E94  3090               	movlw	144
  4775     0E95  00F6               	movwf	clcd_print@addr
  4776     0E96  120A  158A  26A7  120A  158A  	fcall	_clcd_print
  4777                           
  4778                           ;main.c: 204:         key_count = 0;
  4779     0E9B  3027               	movlw	low (STR_7| (0+32768))
  4780     0E9C  00F4               	movwf	clcd_print@str
  4781     0E9D  3089               	movlw	high (STR_7| (0+32768))
  4782     0E9E  00F5               	movwf	clcd_print@str+1
  4783     0E9F  30D0               	movlw	208
  4784     0EA0  00F6               	movwf	clcd_print@addr
  4785     0EA1  120A  158A  26A7  120A  158A  	fcall	_clcd_print
  4786     0EA6                     l125:
  4787     0EA6  0008               	return
  4788     0EA7                     __end_of_cooking_mode_display:
  4789                           
  4790                           	psect	text15
  4791     0EA7                     __ptext15:	
  4792 ;; *************** function _clcd_print *****************
  4793 ;; Defined at:
  4794 ;;		line 69 in file "clcd.c"
  4795 ;; Parameters:    Size  Location     Type
  4796 ;;  str             2    4[COMMON] PTR const unsigned char 
  4797 ;;		 -> STR_29(4), STR_28(11), STR_27(14), STR_26(11), 
  4798 ;;		 -> STR_25(14), STR_24(15), STR_23(17), STR_22(12), 
  4799 ;;		 -> STR_21(4), STR_20(14), STR_19(16), STR_18(17), 
  4800 ;;		 -> STR_17(17), STR_16(17), STR_15(9), STR_14(15), 
  4801 ;;		 -> STR_13(17), STR_12(3), STR_11(3), min_array(3), 
  4802 ;;		 -> sec_array(3), STR_10(17), STR_9(12), STR_8(17), 
  4803 ;;		 -> STR_7(8), STR_6(13), STR_5(8), STR_4(8), 
  4804 ;;		 -> STR_3(17), STR_2(15), STR_1(14), 
  4805 ;;  addr            1    6[COMMON] unsigned char 
  4806 ;; Auto vars:     Size  Location     Type
  4807 ;;		None
  4808 ;; Return value:  Size  Location     Type
  4809 ;;                  1    wreg      void 
  4810 ;; Registers used:
  4811 ;;		wreg, fsr0l, fsr0h, status,2, status,0, btemp+1, pclath, cstack
  4812 ;; Tracked objects:
  4813 ;;		On entry : 0/0
  4814 ;;		On exit  : 0/0
  4815 ;;		Unchanged: 0/0
  4816 ;; Data sizes:     COMMON   BANK0   BANK1   BANK3   BANK2
  4817 ;;      Params:         3       0       0       0       0
  4818 ;;      Locals:         0       0       0       0       0
  4819 ;;      Temps:          0       0       0       0       0
  4820 ;;      Totals:         3       0       0       0       0
  4821 ;;Total ram usage:        3 bytes
  4822 ;; Hardware stack levels used: 1
  4823 ;; Hardware stack levels required when called: 1
  4824 ;; This function calls:
  4825 ;;		_clcd_write
  4826 ;; This function is called by:
  4827 ;;		_main
  4828 ;;		_power_on_screen
  4829 ;;		_cooking_mode_display
  4830 ;;		_set_time
  4831 ;;		_door_status_check
  4832 ;;		_time_display
  4833 ;;		_set_temp
  4834 ;; This function uses a non-reentrant model
  4835 ;;
  4836                           
  4837     0EA7                     _clcd_print:	
  4838                           ;psect for function _clcd_print
  4839                           
  4840     0EA7                     l1740:	
  4841                           ;incstack = 0
  4842                           ; Regs used in _clcd_print: [wreg-fsr0h+status,2+status,0+btemp+1+pclath+cstack]
  4843                           
  4844                           
  4845                           ;clcd.c: 69: void clcd_print(const char *str, unsigned char addr);clcd.c: 70: {;clcd.c: 
      +                          71:     clcd_write(addr, 0);
  4846     0EA7  01F0               	clrf	clcd_write@mode
  4847     0EA8  0876               	movf	clcd_print@addr,w
  4848     0EA9  120A  158A  26D6  120A  158A  	fcall	_clcd_write
  4849                           
  4850                           ;clcd.c: 73:     while (*str != '\0')
  4851     0EAE  2EC5               	goto	l1746
  4852     0EAF                     l1742:
  4853                           
  4854                           ;clcd.c: 74:     {;clcd.c: 75:         clcd_write(*str, 1);
  4855     0EAF  01F0               	clrf	clcd_write@mode
  4856     0EB0  0AF0               	incf	clcd_write@mode,f
  4857     0EB1  0875               	movf	clcd_print@str+1,w
  4858     0EB2  00FF               	movwf	btemp+1
  4859     0EB3  0874               	movf	clcd_print@str,w
  4860     0EB4  0084               	movwf	4
  4861     0EB5  120A  158A  2133  120A  158A  	fcall	stringtab
  4862     0EBA  120A  158A  26D6  120A  158A  	fcall	_clcd_write
  4863     0EBF                     l1744:
  4864                           
  4865                           ;clcd.c: 76:         str++;
  4866     0EBF  3001               	movlw	1
  4867     0EC0  07F4               	addwf	clcd_print@str,f
  4868     0EC1  1803               	skipnc
  4869     0EC2  0AF5               	incf	clcd_print@str+1,f
  4870     0EC3  3000               	movlw	0
  4871     0EC4  07F5               	addwf	clcd_print@str+1,f
  4872     0EC5                     l1746:
  4873                           
  4874                           ;clcd.c: 73:     while (*str != '\0')
  4875     0EC5  0875               	movf	clcd_print@str+1,w
  4876     0EC6  1283               	bcf	3,5	;RP0=0, select bank0
  4877     0EC7  1303               	bcf	3,6	;RP1=0, select bank0
  4878     0EC8  00FF               	movwf	btemp+1
  4879     0EC9  0874               	movf	clcd_print@str,w
  4880     0ECA  0084               	movwf	4
  4881     0ECB  120A  158A  2133  120A  158A  	fcall	stringtab
  4882     0ED0  3A00               	xorlw	0
  4883     0ED1  1D03               	skipz
  4884     0ED2  2ED4               	goto	u1091
  4885     0ED3  2ED5               	goto	u1090
  4886     0ED4                     u1091:
  4887     0ED4  2EAF               	goto	l1742
  4888     0ED5                     u1090:
  4889     0ED5                     l229:
  4890     0ED5  0008               	return
  4891     0ED6                     __end_of_clcd_print:
  4892                           
  4893                           	psect	text16
  4894     0E10                     __ptext16:	
  4895 ;; *************** function _init_config *****************
  4896 ;; Defined at:
  4897 ;;		line 17 in file "main.c"
  4898 ;; Parameters:    Size  Location     Type
  4899 ;;		None
  4900 ;; Auto vars:     Size  Location     Type
  4901 ;;		None
  4902 ;; Return value:  Size  Location     Type
  4903 ;;                  1    wreg      void 
  4904 ;; Registers used:
  4905 ;;		wreg, status,2, status,0, pclath, cstack
  4906 ;; Tracked objects:
  4907 ;;		On entry : 0/0
  4908 ;;		On exit  : 0/0
  4909 ;;		Unchanged: 0/0
  4910 ;; Data sizes:     COMMON   BANK0   BANK1   BANK3   BANK2
  4911 ;;      Params:         0       0       0       0       0
  4912 ;;      Locals:         0       0       0       0       0
  4913 ;;      Temps:          0       0       0       0       0
  4914 ;;      Totals:         0       0       0       0       0
  4915 ;;Total ram usage:        0 bytes
  4916 ;; Hardware stack levels used: 1
  4917 ;; Hardware stack levels required when called: 3
  4918 ;; This function calls:
  4919 ;;		_init_clcd
  4920 ;;		_init_matrix_keypad
  4921 ;;		_init_timer2
  4922 ;; This function is called by:
  4923 ;;		_main
  4924 ;; This function uses a non-reentrant model
  4925 ;;
  4926                           
  4927     0E10                     _init_config:	
  4928                           ;psect for function _init_config
  4929                           
  4930     0E10                     l2264:	
  4931                           ;incstack = 0
  4932                           ; Regs used in _init_config: [wreg+status,2+status,0+pclath+cstack]
  4933                           
  4934                           
  4935                           ;main.c: 18: }
  4936     0E10  120A  158A  25D3  120A  158A  	fcall	_init_clcd
  4937                           
  4938                           ;main.c: 20: void main(void) {
  4939     0E15  120A  158A  25EB  120A  158A  	fcall	_init_matrix_keypad
  4940                           
  4941                           ;main.c: 22:     init_config();
  4942     0E1A  120A  158A  25DE  120A  158A  	fcall	_init_timer2
  4943     0E1F                     l2266:
  4944                           
  4945                           ;main.c: 24:     clear_display();
  4946     0E1F  1683               	bsf	3,5	;RP0=1, select bank1
  4947     0E20  1303               	bcf	3,6	;RP1=0, select bank1
  4948     0E21  1087               	bcf	7,1	;volatile
  4949     0E22                     l2268:
  4950                           
  4951                           ;main.c: 25:     operation_mode = 0x01;
  4952     0E22  1283               	bcf	3,5	;RP0=0, select bank0
  4953     0E23  1303               	bcf	3,6	;RP1=0, select bank0
  4954     0E24  1087               	bcf	7,1	;volatile
  4955     0E25                     l2270:
  4956                           
  4957                           ;main.c: 27:     while(1) {
  4958     0E25  1683               	bsf	3,5	;RP0=1, select bank1
  4959     0E26  1303               	bcf	3,6	;RP1=0, select bank1
  4960     0E27  1107               	bcf	7,2	;volatile
  4961     0E28                     l2272:
  4962                           
  4963                           ;main.c: 28:         key = read_matrix_keypad(1);
  4964     0E28  1283               	bcf	3,5	;RP0=0, select bank0
  4965     0E29  1303               	bcf	3,6	;RP1=0, select bank0
  4966     0E2A  1107               	bcf	7,2	;volatile
  4967     0E2B                     l2274:
  4968                           
  4969                           ;main.c: 30:         {
  4970     0E2B  170B               	bsf	11,6	;volatile
  4971     0E2C                     l2276:
  4972                           
  4973                           ;main.c: 31:             ;
  4974     0E2C  178B               	bsf	11,7	;volatile
  4975     0E2D                     l67:
  4976     0E2D  0008               	return
  4977     0E2E                     __end_of_init_config:
  4978                           
  4979                           	psect	text17
  4980     0DDE                     __ptext17:	
  4981 ;; *************** function _init_timer2 *****************
  4982 ;; Defined at:
  4983 ;;		line 12 in file "timers.c"
  4984 ;; Parameters:    Size  Location     Type
  4985 ;;		None
  4986 ;; Auto vars:     Size  Location     Type
  4987 ;;		None
  4988 ;; Return value:  Size  Location     Type
  4989 ;;                  1    wreg      void 
  4990 ;; Registers used:
  4991 ;;		wreg
  4992 ;; Tracked objects:
  4993 ;;		On entry : 0/0
  4994 ;;		On exit  : 0/0
  4995 ;;		Unchanged: 0/0
  4996 ;; Data sizes:     COMMON   BANK0   BANK1   BANK3   BANK2
  4997 ;;      Params:         0       0       0       0       0
  4998 ;;      Locals:         0       0       0       0       0
  4999 ;;      Temps:          0       0       0       0       0
  5000 ;;      Totals:         0       0       0       0       0
  5001 ;;Total ram usage:        0 bytes
  5002 ;; Hardware stack levels used: 1
  5003 ;; This function calls:
  5004 ;;		Nothing
  5005 ;; This function is called by:
  5006 ;;		_init_config
  5007 ;; This function uses a non-reentrant model
  5008 ;;
  5009                           
  5010     0DDE                     _init_timer2:	
  5011                           ;psect for function _init_timer2
  5012                           
  5013     0DDE                     l1908:	
  5014                           ;incstack = 0
  5015                           ; Regs used in _init_timer2: [wreg]
  5016                           
  5017                           
  5018                           ;timers.c: 15:     T2CKPS0 = 1;
  5019     0DDE  1283               	bcf	3,5	;RP0=0, select bank0
  5020     0DDF  1303               	bcf	3,6	;RP1=0, select bank0
  5021     0DE0  1412               	bsf	18,0	;volatile
  5022                           
  5023                           ;timers.c: 16:     T2CKPS1 = 1;
  5024     0DE1  1492               	bsf	18,1	;volatile
  5025     0DE2                     l1910:
  5026                           
  5027                           ;timers.c: 19:     PR2 = 250;
  5028     0DE2  30FA               	movlw	250
  5029     0DE3  1683               	bsf	3,5	;RP0=1, select bank1
  5030     0DE4  1303               	bcf	3,6	;RP1=0, select bank1
  5031     0DE5  0092               	movwf	18	;volatile
  5032     0DE6                     l1912:
  5033                           
  5034                           ;timers.c: 22:     TMR2IE = 1;
  5035     0DE6  148C               	bsf	12,1	;volatile
  5036     0DE7                     l1914:
  5037                           
  5038                           ;timers.c: 25:     TMR2ON = 0;
  5039     0DE7  1283               	bcf	3,5	;RP0=0, select bank0
  5040     0DE8  1303               	bcf	3,6	;RP1=0, select bank0
  5041     0DE9  1112               	bcf	18,2	;volatile
  5042     0DEA                     l310:
  5043     0DEA  0008               	return
  5044     0DEB                     __end_of_init_timer2:
  5045                           
  5046                           	psect	text18
  5047     0DEB                     __ptext18:	
  5048 ;; *************** function _init_matrix_keypad *****************
  5049 ;; Defined at:
  5050 ;;		line 12 in file "matrix_keypad.c"
  5051 ;; Parameters:    Size  Location     Type
  5052 ;;		None
  5053 ;; Auto vars:     Size  Location     Type
  5054 ;;		None
  5055 ;; Return value:  Size  Location     Type
  5056 ;;                  1    wreg      void 
  5057 ;; Registers used:
  5058 ;;		wreg, status,2
  5059 ;; Tracked objects:
  5060 ;;		On entry : 0/0
  5061 ;;		On exit  : 0/0
  5062 ;;		Unchanged: 0/0
  5063 ;; Data sizes:     COMMON   BANK0   BANK1   BANK3   BANK2
  5064 ;;      Params:         0       0       0       0       0
  5065 ;;      Locals:         0       0       0       0       0
  5066 ;;      Temps:          0       0       0       0       0
  5067 ;;      Totals:         0       0       0       0       0
  5068 ;;Total ram usage:        0 bytes
  5069 ;; Hardware stack levels used: 1
  5070 ;; This function calls:
  5071 ;;		Nothing
  5072 ;; This function is called by:
  5073 ;;		_init_config
  5074 ;; This function uses a non-reentrant model
  5075 ;;
  5076                           
  5077     0DEB                     _init_matrix_keypad:	
  5078                           ;psect for function _init_matrix_keypad
  5079                           
  5080     0DEB                     l1896:	
  5081                           ;incstack = 0
  5082                           ; Regs used in _init_matrix_keypad: [wreg+status,2]
  5083                           
  5084                           
  5085                           ;matrix_keypad.c: 15:     TRISB = TRISB | 0x07;
  5086     0DEB  1683               	bsf	3,5	;RP0=1, select bank1
  5087     0DEC  1303               	bcf	3,6	;RP1=0, select bank1
  5088     0DED  0806               	movf	6,w	;volatile
  5089     0DEE  3807               	iorlw	7
  5090     0DEF  0086               	movwf	6	;volatile
  5091                           
  5092                           ;matrix_keypad.c: 17:     TRISD = TRISD & 0xF0;
  5093     0DF0  0808               	movf	8,w	;volatile
  5094     0DF1  39F0               	andlw	240
  5095     0DF2  0088               	movwf	8	;volatile
  5096     0DF3                     l1898:
  5097                           
  5098                           ;matrix_keypad.c: 20:     nRBPU = 0;
  5099     0DF3  1381               	bcf	1,7	;volatile
  5100     0DF4                     l1900:
  5101                           
  5102                           ;matrix_keypad.c: 23:     RD3 = 1;
  5103     0DF4  1283               	bcf	3,5	;RP0=0, select bank0
  5104     0DF5  1303               	bcf	3,6	;RP1=0, select bank0
  5105     0DF6  1588               	bsf	8,3	;volatile
  5106     0DF7                     l1902:
  5107                           
  5108                           ;matrix_keypad.c: 24:     RD2 = 1;
  5109     0DF7  1508               	bsf	8,2	;volatile
  5110     0DF8                     l1904:
  5111                           
  5112                           ;matrix_keypad.c: 25:     RD1 = 1;
  5113     0DF8  1488               	bsf	8,1	;volatile
  5114     0DF9                     l1906:
  5115                           
  5116                           ;matrix_keypad.c: 26:     RD0 = 1;
  5117     0DF9  1408               	bsf	8,0	;volatile
  5118     0DFA                     l252:
  5119     0DFA  0008               	return
  5120     0DFB                     __end_of_init_matrix_keypad:
  5121                           
  5122                           	psect	text19
  5123     0DD3                     __ptext19:	
  5124 ;; *************** function _init_clcd *****************
  5125 ;; Defined at:
  5126 ;;		line 51 in file "clcd.c"
  5127 ;; Parameters:    Size  Location     Type
  5128 ;;		None
  5129 ;; Auto vars:     Size  Location     Type
  5130 ;;		None
  5131 ;; Return value:  Size  Location     Type
  5132 ;;                  1    wreg      void 
  5133 ;; Registers used:
  5134 ;;		wreg, status,2, status,0, pclath, cstack
  5135 ;; Tracked objects:
  5136 ;;		On entry : 0/0
  5137 ;;		On exit  : 0/0
  5138 ;;		Unchanged: 0/0
  5139 ;; Data sizes:     COMMON   BANK0   BANK1   BANK3   BANK2
  5140 ;;      Params:         0       0       0       0       0
  5141 ;;      Locals:         0       0       0       0       0
  5142 ;;      Temps:          0       0       0       0       0
  5143 ;;      Totals:         0       0       0       0       0
  5144 ;;Total ram usage:        0 bytes
  5145 ;; Hardware stack levels used: 1
  5146 ;; Hardware stack levels required when called: 2
  5147 ;; This function calls:
  5148 ;;		_init_display_controller
  5149 ;; This function is called by:
  5150 ;;		_init_config
  5151 ;; This function uses a non-reentrant model
  5152 ;;
  5153                           
  5154     0DD3                     _init_clcd:	
  5155                           ;psect for function _init_clcd
  5156                           
  5157     0DD3                     l1888:	
  5158                           ;incstack = 0
  5159                           ; Regs used in _init_clcd: [wreg+status,2+status,0+pclath+cstack]
  5160                           
  5161                           
  5162                           ;clcd.c: 54:     TRISD = 0x00;
  5163     0DD3  1683               	bsf	3,5	;RP0=1, select bank1
  5164     0DD4  1303               	bcf	3,6	;RP1=0, select bank1
  5165     0DD5  0188               	clrf	8	;volatile
  5166     0DD6                     l1890:
  5167                           
  5168                           ;clcd.c: 57:     TRISE2 = 0;
  5169     0DD6  1109               	bcf	9,2	;volatile
  5170     0DD7                     l1892:
  5171                           
  5172                           ;clcd.c: 58:     TRISE1 = 0;
  5173     0DD7  1089               	bcf	9,1	;volatile
  5174     0DD8                     l1894:
  5175                           
  5176                           ;clcd.c: 60:     init_display_controller();
  5177     0DD8  120A  158A  2742  120A  158A  	fcall	_init_display_controller
  5178     0DDD                     l220:
  5179     0DDD  0008               	return
  5180     0DDE                     __end_of_init_clcd:
  5181                           
  5182                           	psect	text20
  5183     0F42                     __ptext20:	
  5184 ;; *************** function _init_display_controller *****************
  5185 ;; Defined at:
  5186 ;;		line 29 in file "clcd.c"
  5187 ;; Parameters:    Size  Location     Type
  5188 ;;		None
  5189 ;; Auto vars:     Size  Location     Type
  5190 ;;		None
  5191 ;; Return value:  Size  Location     Type
  5192 ;;                  1    wreg      void 
  5193 ;; Registers used:
  5194 ;;		wreg, status,2, status,0, pclath, cstack
  5195 ;; Tracked objects:
  5196 ;;		On entry : 0/0
  5197 ;;		On exit  : 0/0
  5198 ;;		Unchanged: 0/0
  5199 ;; Data sizes:     COMMON   BANK0   BANK1   BANK3   BANK2
  5200 ;;      Params:         0       0       0       0       0
  5201 ;;      Locals:         0       0       0       0       0
  5202 ;;      Temps:          2       0       0       0       0
  5203 ;;      Totals:         2       0       0       0       0
  5204 ;;Total ram usage:        2 bytes
  5205 ;; Hardware stack levels used: 1
  5206 ;; Hardware stack levels required when called: 1
  5207 ;; This function calls:
  5208 ;;		_clcd_write
  5209 ;; This function is called by:
  5210 ;;		_init_clcd
  5211 ;; This function uses a non-reentrant model
  5212 ;;
  5213                           
  5214     0F42                     _init_display_controller:	
  5215                           ;psect for function _init_display_controller
  5216                           
  5217     0F42                     l1772:	
  5218                           ;incstack = 0
  5219                           ; Regs used in _init_display_controller: [wreg+status,2+status,0+pclath+cstack]
  5220                           
  5221                           
  5222                           ;clcd.c: 32:     _delay((unsigned long)((30)*(20000000/4000.0)));
  5223     0F42  30C3               	movlw	195
  5224     0F43  00F5               	movwf	??_init_display_controller+1
  5225     0F44  30CD               	movlw	205
  5226     0F45  00F4               	movwf	??_init_display_controller
  5227     0F46                     u2157:
  5228     0F46  0BF4               	decfsz	??_init_display_controller,f
  5229     0F47  2F46               	goto	u2157
  5230     0F48  0BF5               	decfsz	??_init_display_controller+1,f
  5231     0F49  2F46               	goto	u2157
  5232     0F4A                     l1774:
  5233                           
  5234                           ;clcd.c: 35:     clcd_write(0x30, 0);
  5235     0F4A  01F0               	clrf	clcd_write@mode
  5236     0F4B  3030               	movlw	48
  5237     0F4C  120A  158A  26D6  120A  158A  	fcall	_clcd_write
  5238     0F51                     l1776:
  5239                           
  5240                           ;clcd.c: 36:     _delay((unsigned long)((4100)*(20000000/4000000.0)));
  5241     0F51  301B               	movlw	27
  5242     0F52  00F5               	movwf	??_init_display_controller+1
  5243     0F53  309E               	movlw	158
  5244     0F54  00F4               	movwf	??_init_display_controller
  5245     0F55                     u2167:
  5246     0F55  0BF4               	decfsz	??_init_display_controller,f
  5247     0F56  2F55               	goto	u2167
  5248     0F57  0BF5               	decfsz	??_init_display_controller+1,f
  5249     0F58  2F55               	goto	u2167
  5250     0F59  0000               	nop
  5251                           
  5252                           ;clcd.c: 37:     clcd_write(0x30, 0);
  5253     0F5A  01F0               	clrf	clcd_write@mode
  5254     0F5B  3030               	movlw	48
  5255     0F5C  120A  158A  26D6  120A  158A  	fcall	_clcd_write
  5256     0F61                     l1778:
  5257                           
  5258                           ;clcd.c: 38:     _delay((unsigned long)((100)*(20000000/4000000.0)));
  5259     0F61  30A6               	movlw	166
  5260     0F62  00F4               	movwf	??_init_display_controller
  5261     0F63                     u2177:
  5262     0F63  0BF4               	decfsz	??_init_display_controller,f
  5263     0F64  2F63               	goto	u2177
  5264     0F65  0000               	nop
  5265     0F66                     l1780:
  5266                           
  5267                           ;clcd.c: 39:     clcd_write(0x30, 0);
  5268     0F66  01F0               	clrf	clcd_write@mode
  5269     0F67  3030               	movlw	48
  5270     0F68  120A  158A  26D6  120A  158A  	fcall	_clcd_write
  5271     0F6D                     l1782:
  5272                           
  5273                           ;clcd.c: 40:     _delay((unsigned long)((1)*(20000000/4000000.0)));
  5274     0F6D  2F6E               	nop2	;2 cycle nop
  5275     0F6E  2F6F               	nop2	;2 cycle nop
  5276     0F6F  0000               	nop
  5277     0F70                     l1784:
  5278                           
  5279                           ;clcd.c: 42:     clcd_write(0x02 , 0);
  5280     0F70  01F0               	clrf	clcd_write@mode
  5281     0F71  3002               	movlw	2
  5282     0F72  120A  158A  26D6  120A  158A  	fcall	_clcd_write
  5283     0F77                     l1786:
  5284                           
  5285                           ;clcd.c: 43:     _delay((unsigned long)((100)*(20000000/4000000.0)));
  5286     0F77  30A6               	movlw	166
  5287     0F78  00F4               	movwf	??_init_display_controller
  5288     0F79                     u2187:
  5289     0F79  0BF4               	decfsz	??_init_display_controller,f
  5290     0F7A  2F79               	goto	u2187
  5291     0F7B  0000               	nop
  5292                           
  5293                           ;clcd.c: 45:     clcd_write(0x01, 0);
  5294     0F7C  01F0               	clrf	clcd_write@mode
  5295     0F7D  3001               	movlw	1
  5296     0F7E  120A  158A  26D6  120A  158A  	fcall	_clcd_write
  5297     0F83                     l1788:
  5298                           
  5299                           ;clcd.c: 46:     _delay((unsigned long)((500)*(20000000/4000000.0)));
  5300     0F83  3004               	movlw	4
  5301     0F84  00F5               	movwf	??_init_display_controller+1
  5302     0F85  303D               	movlw	61
  5303     0F86  00F4               	movwf	??_init_display_controller
  5304     0F87                     u2197:
  5305     0F87  0BF4               	decfsz	??_init_display_controller,f
  5306     0F88  2F87               	goto	u2197
  5307     0F89  0BF5               	decfsz	??_init_display_controller+1,f
  5308     0F8A  2F87               	goto	u2197
  5309     0F8B  2F8C               	nop2
  5310     0F8C                     l1790:
  5311                           
  5312                           ;clcd.c: 47:     clcd_write(0x0C, 0);
  5313     0F8C  01F0               	clrf	clcd_write@mode
  5314     0F8D  300C               	movlw	12
  5315     0F8E  120A  158A  26D6  120A  158A  	fcall	_clcd_write
  5316                           
  5317                           ;clcd.c: 48:     _delay((unsigned long)((100)*(20000000/4000000.0)));
  5318     0F93  30A6               	movlw	166
  5319     0F94  00F4               	movwf	??_init_display_controller
  5320     0F95                     u2207:
  5321     0F95  0BF4               	decfsz	??_init_display_controller,f
  5322     0F96  2F95               	goto	u2207
  5323     0F97  0000               	nop
  5324     0F98                     l217:
  5325     0F98  0008               	return
  5326     0F99                     __end_of_init_display_controller:
  5327                           
  5328                           	psect	text21
  5329     0ED6                     __ptext21:	
  5330 ;; *************** function _clcd_write *****************
  5331 ;; Defined at:
  5332 ;;		line 12 in file "clcd.c"
  5333 ;; Parameters:    Size  Location     Type
  5334 ;;  byte            1    wreg     unsigned char 
  5335 ;;  mode            1    0[COMMON] unsigned char 
  5336 ;; Auto vars:     Size  Location     Type
  5337 ;;  byte            1    3[COMMON] unsigned char 
  5338 ;; Return value:  Size  Location     Type
  5339 ;;                  1    wreg      void 
  5340 ;; Registers used:
  5341 ;;		wreg, status,2, status,0
  5342 ;; Tracked objects:
  5343 ;;		On entry : 0/0
  5344 ;;		On exit  : 0/0
  5345 ;;		Unchanged: 0/0
  5346 ;; Data sizes:     COMMON   BANK0   BANK1   BANK3   BANK2
  5347 ;;      Params:         1       0       0       0       0
  5348 ;;      Locals:         1       0       0       0       0
  5349 ;;      Temps:          2       0       0       0       0
  5350 ;;      Totals:         4       0       0       0       0
  5351 ;;Total ram usage:        4 bytes
  5352 ;; Hardware stack levels used: 1
  5353 ;; This function calls:
  5354 ;;		Nothing
  5355 ;; This function is called by:
  5356 ;;		_main
  5357 ;;		_clear_display
  5358 ;;		_init_display_controller
  5359 ;;		_clcd_putch
  5360 ;;		_clcd_print
  5361 ;; This function uses a non-reentrant model
  5362 ;;
  5363                           
  5364     0ED6                     _clcd_write:	
  5365                           ;psect for function _clcd_write
  5366                           
  5367                           
  5368                           ;incstack = 0
  5369                           ; Regs used in _clcd_write: [wreg+status,2+status,0]
  5370                           ;clcd_write@byte stored from wreg
  5371     0ED6  00F3               	movwf	clcd_write@byte
  5372     0ED7                     l1718:
  5373                           
  5374                           ;clcd.c: 12: void clcd_write(unsigned char byte, unsigned char mode);clcd.c: 13: {;clcd.
      +                          c: 14:     RE2 = mode;
  5375     0ED7  1870               	btfsc	clcd_write@mode,0
  5376     0ED8  2EDA               	goto	u1061
  5377     0ED9  2EDE               	goto	u1060
  5378     0EDA                     u1061:
  5379     0EDA  1283               	bcf	3,5	;RP0=0, select bank0
  5380     0EDB  1303               	bcf	3,6	;RP1=0, select bank0
  5381     0EDC  1509               	bsf	9,2	;volatile
  5382     0EDD  2EE1               	goto	u1074
  5383     0EDE                     u1060:
  5384     0EDE  1283               	bcf	3,5	;RP0=0, select bank0
  5385     0EDF  1303               	bcf	3,6	;RP1=0, select bank0
  5386     0EE0  1109               	bcf	9,2	;volatile
  5387     0EE1                     u1074:
  5388     0EE1                     l1720:
  5389                           
  5390                           ;clcd.c: 16:     PORTD = byte & 0xF0;
  5391     0EE1  0873               	movf	clcd_write@byte,w
  5392     0EE2  39F0               	andlw	240
  5393     0EE3  0088               	movwf	8	;volatile
  5394     0EE4                     l1722:
  5395                           
  5396                           ;clcd.c: 17:     RE1 = 1;
  5397     0EE4  1489               	bsf	9,1	;volatile
  5398     0EE5                     l1724:
  5399                           
  5400                           ;clcd.c: 18:     _delay((unsigned long)((100)*(20000000/4000000.0)));
  5401     0EE5  30A6               	movlw	166
  5402     0EE6  00F1               	movwf	??_clcd_write
  5403     0EE7                     u2217:
  5404     0EE7  0BF1               	decfsz	??_clcd_write,f
  5405     0EE8  2EE7               	goto	u2217
  5406     0EE9  0000               	nop
  5407     0EEA                     l1726:
  5408                           
  5409                           ;clcd.c: 19:     RE1 = 0;
  5410     0EEA  1283               	bcf	3,5	;RP0=0, select bank0
  5411     0EEB  1303               	bcf	3,6	;RP1=0, select bank0
  5412     0EEC  1089               	bcf	9,1	;volatile
  5413     0EED                     l1728:
  5414                           
  5415                           ;clcd.c: 21:     PORTD = (byte & 0x0F) << 4;
  5416     0EED  0873               	movf	clcd_write@byte,w
  5417     0EEE  390F               	andlw	15
  5418     0EEF  00F1               	movwf	??_clcd_write
  5419     0EF0  3003               	movlw	3
  5420     0EF1                     u1085:
  5421     0EF1  1003               	clrc
  5422     0EF2  0DF1               	rlf	??_clcd_write,f
  5423     0EF3  3EFF               	addlw	-1
  5424     0EF4  1D03               	skipz
  5425     0EF5  2EF1               	goto	u1085
  5426     0EF6  1003               	clrc
  5427     0EF7  0D71               	rlf	??_clcd_write,w
  5428     0EF8  0088               	movwf	8	;volatile
  5429     0EF9                     l1730:
  5430                           
  5431                           ;clcd.c: 22:     RE1 = 1;
  5432     0EF9  1489               	bsf	9,1	;volatile
  5433     0EFA                     l1732:
  5434                           
  5435                           ;clcd.c: 23:     _delay((unsigned long)((100)*(20000000/4000000.0)));
  5436     0EFA  30A6               	movlw	166
  5437     0EFB  00F1               	movwf	??_clcd_write
  5438     0EFC                     u2227:
  5439     0EFC  0BF1               	decfsz	??_clcd_write,f
  5440     0EFD  2EFC               	goto	u2227
  5441     0EFE  0000               	nop
  5442     0EFF                     l1734:
  5443                           
  5444                           ;clcd.c: 24:     RE1 = 0;
  5445     0EFF  1283               	bcf	3,5	;RP0=0, select bank0
  5446     0F00  1303               	bcf	3,6	;RP1=0, select bank0
  5447     0F01  1089               	bcf	9,1	;volatile
  5448     0F02                     l1736:
  5449                           
  5450                           ;clcd.c: 26:     _delay((unsigned long)((4100)*(20000000/4000000.0)));
  5451     0F02  301B               	movlw	27
  5452     0F03  00F2               	movwf	??_clcd_write+1
  5453     0F04  309E               	movlw	158
  5454     0F05  00F1               	movwf	??_clcd_write
  5455     0F06                     u2237:
  5456     0F06  0BF1               	decfsz	??_clcd_write,f
  5457     0F07  2F06               	goto	u2237
  5458     0F08  0BF2               	decfsz	??_clcd_write+1,f
  5459     0F09  2F06               	goto	u2237
  5460     0F0A  0000               	nop
  5461     0F0B                     l214:
  5462     0F0B  0008               	return
  5463     0F0C                     __end_of_clcd_write:
  5464     007E                     btemp	set	126	;btemp
  5465     007E                     wtemp0	set	126
  5466                           
  5467                           	psect	config
  5468                           
  5469                           ;Config register CONFIG @ 0x2007
  5470                           ;	Oscillator Selection bits
  5471                           ;	FOSC = 0x3, unprogrammed default
  5472                           ;	Watchdog Timer Enable bit
  5473                           ;	WDTE = OFF, WDT disabled
  5474                           ;	Power-up Timer Enable bit
  5475                           ;	PWRTE = 0x1, unprogrammed default
  5476                           ;	Brown-out Reset Enable bit
  5477                           ;	BOREN = 0x1, unprogrammed default
  5478                           ;	Low-Voltage (Single-Supply) In-Circuit Serial Programming Enable bit
  5479                           ;	LVP = 0x1, unprogrammed default
  5480                           ;	Data EEPROM Memory Code Protection bit
  5481                           ;	CPD = 0x1, unprogrammed default
  5482                           ;	Flash Program Memory Write Enable bits
  5483                           ;	WRT = 0x3, unprogrammed default
  5484                           ;	In-Circuit Debugger Mode bit
  5485                           ;	DEBUG = 0x1, unprogrammed default
  5486                           ;	Flash Program Memory Code Protection bit
  5487                           ;	CP = 0x1, unprogrammed default
  5488     2007                     	org	8199
  5489     2007  3FFB               	dw	16379

Data Sizes:
    Strings     307
    Constant    0
    Data        1
    BSS         36
    Persistent  0
    Stack       0

Auto Spaces:
    Space          Size  Autos    Used
    COMMON           14     14      14
    BANK0            80     13      50
    BANK1            80      0       0
    BANK3            96      0       0
    BANK2            96      0       0

Pointer List with Targets:

    clcd_print@str	PTR const unsigned char  size(2) Largest target is 17
		 -> STR_29(CODE[4]), STR_28(CODE[11]), STR_27(CODE[14]), STR_26(CODE[11]), 
		 -> STR_25(CODE[14]), STR_24(CODE[15]), STR_23(CODE[17]), STR_22(CODE[12]), 
		 -> STR_21(CODE[4]), STR_20(CODE[14]), STR_19(CODE[16]), STR_18(CODE[17]), 
		 -> STR_17(CODE[17]), STR_16(CODE[17]), STR_15(CODE[9]), STR_14(CODE[15]), 
		 -> STR_13(CODE[17]), STR_12(CODE[3]), STR_11(CODE[3]), min_array(BANK0[3]), 
		 -> sec_array(BANK0[3]), STR_10(CODE[17]), STR_9(CODE[12]), STR_8(CODE[17]), 
		 -> STR_7(CODE[8]), STR_6(CODE[13]), STR_5(CODE[8]), STR_4(CODE[8]), 
		 -> STR_3(CODE[17]), STR_2(CODE[15]), STR_1(CODE[14]), 


Critical Paths under _main in COMMON

    _read_matrix_keypad->_scan_keypad
    _time_display->___awmod
    _set_time->___awmod
    _set_temp->___awmod
    _door_status_check->_clcd_print
    _clear_display->_clcd_write
    _clcd_putch->___awmod
    ___awmod->___awdiv
    _cooking_mode_display->_clcd_print
    _clcd_print->_clcd_write
    _init_clcd->_init_display_controller
    _init_display_controller->_clcd_write

Critical Paths under _main in BANK0

    _main->_opearation_call
    _main->_power_on_screen
    _power_on_screen->_clcd_putch
    _opearation_call->_set_temp
    _time_display->_clcd_putch
    _set_temp->_clcd_putch

Critical Paths under _main in BANK1

    None.

Critical Paths under _main in BANK3

    None.

Critical Paths under _main in BANK2

    None.

Call Graph Tables:

 ---------------------------------------------------------------------------------
 (Depth) Function   	        Calls       Base Space   Used Autos Params    Refs
 ---------------------------------------------------------------------------------
 (0) _main                                                 4     4      0   72948
                                              9 BANK0      4     4      0
                         _clcd_print
                         _clcd_write
                      _clear_display
                        _init_config
                    _opearation_call
                    _power_on_screen
                 _read_matrix_keypad
 ---------------------------------------------------------------------------------
 (1) _read_matrix_keypad                                   2     2      0     203
                                              2 COMMON     2     2      0
                        _scan_keypad
 ---------------------------------------------------------------------------------
 (2) _scan_keypad                                          2     2      0      92
                                              0 COMMON     2     2      0
 ---------------------------------------------------------------------------------
 (1) _power_on_screen                                      7     7      0    7979
                                              2 BANK0      7     7      0
                         _clcd_print
                         _clcd_putch
 ---------------------------------------------------------------------------------
 (1) _opearation_call                                      3     3      0   55768
                                              6 BANK0      3     3      0
                      _clear_display
               _cooking_mode_display
                           _set_temp
                           _set_time
                       _time_display
 ---------------------------------------------------------------------------------
 (2) _time_display                                         3     3      0   18736
                                              2 BANK0      3     3      0
                            ___awdiv
                            ___awmod
                         _clcd_print
                         _clcd_putch
                      _clear_display
                  _door_status_check
 ---------------------------------------------------------------------------------
 (2) _set_time                                             3     3      0   10618
                                              0 BANK0      3     3      0
                            ___awdiv
                            ___awmod
                             ___wmul
                         _clcd_print
                      _clear_display
 ---------------------------------------------------------------------------------
 (2) _set_temp                                             4     4      0   19417
                                              2 BANK0      4     4      0
                            ___awdiv
                            ___awmod
                             ___wmul
                         _clcd_print
                         _clcd_putch
                      _clear_display
                  _door_status_check
 ---------------------------------------------------------------------------------
 (3) _door_status_check                                    0     0      0    6887
                         _clcd_print
                      _clear_display
 ---------------------------------------------------------------------------------
 (4) _clear_display                                        0     0      0     978
                         _clcd_write
 ---------------------------------------------------------------------------------
 (2) _clcd_putch                                           2     1      1    1934
                                              0 BANK0      2     1      1
                            ___awdiv (ARG)
                            ___awmod (ARG)
                         _clcd_write
 ---------------------------------------------------------------------------------
 (3) ___wmul                                               6     2      4     548
                                              0 COMMON     6     2      4
 ---------------------------------------------------------------------------------
 (3) ___awmod                                              6     2      4    1512
                                              8 COMMON     6     2      4
                            ___awdiv (ARG)
 ---------------------------------------------------------------------------------
 (3) ___awdiv                                              8     4      4    1516
                                              0 COMMON     8     4      4
 ---------------------------------------------------------------------------------
 (2) _cooking_mode_display                                 0     0      0    5909
                         _clcd_print
 ---------------------------------------------------------------------------------
 (2) _clcd_print                                           3     0      3    5909
                                              4 COMMON     3     0      3
                         _clcd_write
 ---------------------------------------------------------------------------------
 (1) _init_config                                          0     0      0     978
                          _init_clcd
                 _init_matrix_keypad
                        _init_timer2
 ---------------------------------------------------------------------------------
 (2) _init_timer2                                          0     0      0       0
 ---------------------------------------------------------------------------------
 (2) _init_matrix_keypad                                   0     0      0       0
 ---------------------------------------------------------------------------------
 (2) _init_clcd                                            0     0      0     978
            _init_display_controller
 ---------------------------------------------------------------------------------
 (3) _init_display_controller                              2     2      0     978
                                              4 COMMON     2     2      0
                         _clcd_write
 ---------------------------------------------------------------------------------
 (3) _clcd_write                                           4     3      1     978
                                              0 COMMON     4     3      1
 ---------------------------------------------------------------------------------
 Estimated maximum stack depth 4
 ---------------------------------------------------------------------------------

 Call Graph Graphs:

 _main (ROOT)
   _clcd_print
     _clcd_write
   _clcd_write
   _clear_display
     _clcd_write
   _init_config
     _init_clcd
       _init_display_controller
         _clcd_write
     _init_matrix_keypad
     _init_timer2
   _opearation_call
     _clear_display
     _cooking_mode_display
       _clcd_print
     _set_temp
       ___awdiv
       ___awmod
         ___awdiv (ARG)
       ___wmul
       _clcd_print
       _clcd_putch
         ___awdiv (ARG)
         ___awmod (ARG)
         _clcd_write (ARG)
       _clear_display
       _door_status_check
         _clcd_print
         _clear_display
     _set_time
       ___awdiv
       ___awmod
       ___wmul
       _clcd_print
       _clear_display
     _time_display
       ___awdiv
       ___awmod
       _clcd_print
       _clcd_putch
       _clear_display
       _door_status_check
   _power_on_screen
     _clcd_print
     _clcd_putch
   _read_matrix_keypad
     _scan_keypad

 Address spaces:
Name               Size   Autos  Total    Cost      Usage
BANK3               60      0       0       9        0.0%
BITBANK3            60      0       0       8        0.0%
SFR3                 0      0       0       4        0.0%
BITSFR3              0      0       0       4        0.0%
BANK2               60      0       0      11        0.0%
BITBANK2            60      0       0      10        0.0%
SFR2                 0      0       0       5        0.0%
BITSFR2              0      0       0       5        0.0%
BANK1               50      0       0       7        0.0%
BITBANK1            50      0       0       6        0.0%
SFR1                 0      0       0       2        0.0%
BITSFR1              0      0       0       2        0.0%
BANK0               50      D      32       5       62.5%
BITBANK0            50      0       0       4        0.0%
SFR0                 0      0       0       1        0.0%
BITSFR0              0      0       0       1        0.0%
COMMON               E      E       E       1      100.0%
BITCOMMON            E      0       0       0        0.0%
CODE                 0      0       0       0        0.0%
DATA                 0      0      40      12        0.0%
ABS                  0      0      40       3        0.0%
NULL                 0      0       0       0        0.0%
STACK                0      0       0       2        0.0%
EEDATA             100      0       0       0        0.0%


Microchip Technology PIC Macro Assembler V2.41 build 20230208172133 
Symbol Table                                                                                   Thu Sep 28 18:56:16 2023

                              pc 0002                   clcd_print@addr 0076                               l67 0E2D  
                             l75 0326                     ___awdiv@sign 0075                               fsr 0004  
            ___wmul@multiplicand 0072               _init_matrix_keypad 0DEB                              l113 0139  
                            l122 00CC                              l115 0168                              l220 0DDD  
                            l125 0EA6                              l214 0F0B                              l310 0DEA  
                            l223 0E0F                              l128 0DCA                              l160 05E6  
                            l217 0F98                              l171 02F1                              l252 0DFA  
                            l164 0F30                              l260 0195                              l229 0ED5  
                            l261 018F                              l190 07EC                              l167 0F41  
                            l257 0181                              l282 01FF                              l274 01D5  
                            l266 01AB                              l258 0189                              l283 0207  
                            l275 01DD                              l267 01B3                              l259 0214  
                            l276 01E9                              l268 01BF                              l285 020D  
                            l277 01E3                              l269 01B9                              l293 0E79  
                            l562 005E                              l396 0E3A                              l549 0FFF  
                            l398 0E52                              _GIE 005F                              _RB0 0030  
                            _RB1 0031                              _RB2 0032                              _RC1 0039  
                            _RB3 0033                              _RC2 003A                              _RD0 0040  
                            _RD1 0041                              _RD2 0042                              _RE1 0049  
                            _RD3 0043                              _RE2 004A                              _PR2 0092  
                            _min 0038                              _sec 0036                              _ret 0034  
                 clcd_putch@addr 0044                              fsr0 0004                   clcd_putch@data 0045  
                            indf 0000                     ___awmod@sign 007D              ?_init_matrix_keypad 0070  
                           l2000 04B9                             l2010 04E9                             l2002 04BE  
                           l2100 0644                             l2020 0521                             l2012 04F6  
                           l2004 04CD                             l2110 067C                             l2102 064A  
                           l2030 0534                             l2014 04FF                             l2006 04DC  
                           l2120 06A4                             l2112 0682                             l2104 0657  
                           l2040 0560                             l2032 0535                             l2016 050E  
                           l2024 0526                             l2008 04E3                             l2200 0199  
                           l2122 06B2                             l2114 0687                             l2106 0671  
                           l2050 0594                             l2042 0572                             l2026 052C  
                           l2018 051D                             l2034 0539                             l2210 01B7  
                           l2202 019D                             l2140 06DA                             l2124 06B5  
                           l2116 0696                             l2132 06BC                             l2108 0677  
                           l2060 05C1                             l2052 05A2                             l2044 0584  
                           l2036 054D                             l2028 0531                             l2300 00A8  
                           l2220 01C3                             l2204 01B1                             l2150 0744  
                           l2142 06ED                             l2134 06C7                             l2126 06BA  
                           l2118 06A1                             l2062 05CD                             l2054 05AD  
                           l2046 0585                             l2038 055F                             l2302 00B0  
                           l2230 01E1                             l2222 01C7                             l2310 0E5F  
                           l2160 0775                             l2144 06F1                             l2152 075C  
                           l2136 06CD                             l2080 05F7                             l2072 05EA  
                           l2048 0592                             l2056 05B8                             l2304 00BD  
                           l2240 01ED                             l2224 01DB                             l2216 01BD  
                           l2320 0E6D                             l2400 031E                             l2162 0777  
                           l2170 07D8                             l2154 0764                             l2146 0707  
                           l2138 06CE                             l2090 061B                             l2082 05F9  
                           l2074 05F1                             l2066 05D9                             l2250 020B  
                           l2242 01F1                             l2330 0E74                             l2306 0E54  
                           l2410 0340                             l2402 0327                             l2172 07E0  
                           l2164 0785                             l2148 071F                             l2092 0626  
                           l2084 05FB                             l2076 05F3                             l2340 00D7  
                           l2260 0213                             l2244 0205                             l2236 01E7  
                           l2180 016F                             l2332 0E78                             l2316 0E61  
                           l2308 0E5A                             l2412 034B                             l2404 032C  
                           l2270 0E25                             l2174 07EB                             l2166 079B  
                           l2158 0766                             l2086 0606                             l2078 05F5  
                           l2094 0631                             l2350 00FF                             l2342 00DD  
                           l2190 018D                             l2182 0173                             l2318 0E66  
                           l2430 0383                             l2422 036E                             l2414 0359  
                           l2406 0334                             l1720 0EE1                             l2272 0E28  
                           l2264 0E10                             l1800 0E48                             l2168 07C0  
                           l2096 0638                             l2088 0610                             l2360 011D  
                           l2352 0105                             l2344 00E4                             l2336 00D0  
                           l2256 0211                             l2184 0187                             l2328 0E6F  
                           l2440 0391                             l2432 0389                             l2424 0374  
                           l2408 033B                             l2416 035F                             l1730 0EF9  
                           l1722 0EE4                             l2274 0E2B                             l2266 0E1F  
                           l1810 0F9E                             l1802 0E4E                             l2098 063E  
                           l2522 0145                             l2370 013B                             l2362 0122  
                           l2354 010E                             l2346 00EB                             l2338 00D1  
                           l2290 0083                             l2178 0169                             l2450 03BA  
                           l2434 038B                             l2442 0396                             l2418 0365  
                           l1732 0EFA                             l1724 0EE5                             l1900 0DF4  
                           l2276 0E2C                             l2268 0E22                             l1740 0EA7  
                           l1820 0FB2                             l1812 0FA3                             l2524 05DE  
                           l2364 0128                             l2356 0114                             l2348 00F1  
                           l2292 0099                             l2284 0063                             l2196 0193  
                           l2460 03D7                             l2444 039D                             l2452 03C3  
                           l2436 038F                             l2428 037D                             l1734 0EFF  
                           l1726 0EEA                             l1718 0ED7                             l1902 0DF7  
                           l1910 0DE2                             l1742 0EAF                             l1830 0FC8  
                           l1822 0FB4                             l1814 0FA5                             l1806 0F99  
                           l1750 0F0C                             l2358 0115                             l2366 012F  
                           l2374 0140                             l2286 006E                             l2278 005F  
                           l2462 03DB                             l2454 03CA                             l2446 03A5  
                           l2438 0390                             l2470 03E8                             l2390 02FC  
                           l1736 0F02                             l1728 0EED                             l1904 0DF8  
                           l1912 0DE6                             l1744 0EBF                             l1840 0FEB  
                           l1832 0FCC                             l1824 0FBA                             l1816 0FA9  
                           l1808 0F9A                             l1760 0F36                             l1752 0F12  
                           l1920 0225                             l2368 0132                             l2376 015C  
                           l2288 0076                             l2464 03DD                             l2456 03CC  
                           l2448 03B2                             l2392 0301                             l1906 0DF9  
                           l1914 0DE7                             l1746 0EC5                             l1834 0FDD  
                           l1826 0FBD                             l1842 0FF1                             l1818 0FAE  
                           l1850 0006                             l1738 0DC3                             l1762 0F3B  
                           l1754 0F15                             l1930 0261                             l1922 0239  
                           l2378 0164                             l2298 009D                             l2466 03E3  
                           l2458 03D1                             l2394 0307                             l2386 02F2  
                           l1780 0F66                             l1772 0F42                             l1908 0DDE  
                           l1916 0E7A                             l1844 0FF6                             l1836 0FE3  
                           l1828 0FC4                             l1860 0016                             l1852 0007  
                           l1748 0DFE                             l1764 0F3E                             l1756 0F1A  
                           l1940 02B2                             l1932 0279                             l1924 024B  
                           l2396 0310                             l2388 02F7                             l1790 0F8C  
                           l1782 0F6D                             l1774 0F4A                             l1846 0FFB  
                           l1838 0FE4                             l1870 002F                             l1862 001B  
                           l1854 000B                             l1766 0F3F                             l1758 0F25  
                           l1950 02D2                             l1942 02BA                             l1934 0291  
                           l1926 024C                             l1918 0215                             l2398 0317  
                           l1784 0F70                             l1776 0F51                             l1872 0033  
                           l1864 0021                             l1880 0050                             l1856 0010  
                           l1792 0E2E                             l1768 0F40                             l1960 03F7  
                           l1952 02D5                             l1944 02C0                             l1936 029C  
                           l1928 0257                             l1786 0F77                             l1778 0F61  
                           l1890 0DD6                             l1882 0055                             l1874 003D  
                           l1866 0024                             l1858 0012                             l1794 0E30  
                           l1970 040E                             l1962 0404                             l1954 02E3  
                           l1946 02C2                             l1938 02A7                             l1788 0F83  
                           l1892 0DD7                             l1884 005A                             l1876 0043  
                           l1868 002B                             l1796 0E34                             l1972 0410  
                           l1964 0408                             l1980 0433                             l1956 02E6  
                           l1948 02C7                             l1894 0DD8                             l1878 004A  
                           l1798 0E41                             l1990 0459                             l1982 043A  
                           l1974 0412                             l1966 040A                             l1958 02EB  
                           l1888 0DD3                             l1896 0DEB                             l1992 0473  
                           l1984 0440                             l1976 041D                             l1968 040C  
                           l1898 0DF3                             l1994 0482                             l1986 0446  
                           l1978 0428                             l1996 0491                             l1988 044C  
                           l1998 04AA                             STR_1 08C2                             STR_2 0887  
                           STR_3 0833                             STR_4 091F                             STR_5 0917  
                           STR_6 08DE                             STR_7 0927                             STR_8 0844  
                           STR_9 08F7                             u1100 0F12                             u1101 0F11  
                           u1110 0F36                             u1111 0F35                             u1200 0FCC  
                           u1120 0E34                             u2000 0325                             u1201 0FCB  
                           u1121 0E33                             u2001 0324                             u2010 032C  
                           u2011 032B                             u1060 0EDE                             u1220 0FDD  
                           u1300 0033                             u2100 03E3                             u2020 0365  
                           u1061 0EDA                             u1221 0FDC                             u1301 0032  
                           u2101 03E2                             u2021 0364                             u1310 003D  
                           u1150 0E4E                             u2030 0374                             u1215 0FCD  
                           u1311 003C                             u1151 0E4D                             u1135 0E3B  
                           u2031 0373                             u1240 0FF1                             u1160 0F9E  
                           u1400 0446                             u2040 0383                             u1241 0FF0  
                           u1225 0FD9                             u1161 0F9D                             u1145 0E42  
                           u1401 0445                             u2041 0382                             u1074 0EE1  
                           u1090 0ED5                             u1250 0FF6                             u1170 0FA9  
                           u1330 0050                             u1410 0459                             u2050 0389  
                           u1091 0ED4                             u1251 0FF5                             u1235 0FE5  
                           u1171 0FA8                             u1331 004F                             u1315 0039  
                           u1411 0458                             u2051 0388                             u1180 0FBA  
                           u1340 0055                             u1260 000B                             u1500 051D  
                           u1420 0482                             u2060 039D                             u1085 0EF1  
                           u1181 0FB9                             u1341 0054                             u1325 0044  
                           u1261 000A                             u1501 051C                             u1421 0481  
                           u2061 039C                             u2117 0353                             u1270 0016  
                           u1510 052C                             u1430 0491                             u1350 02BA  
                           u2070 03B2                             u2207 0F95                             u1271 0015  
                           u1511 052B                             u1431 0490                             u1415 0455  
                           u1351 02B9                             u2127 00C5                             u2071 03B1  
                           u1280 0021                             u1600 0657                             u1520 0592  
                           u1440 04B9                             u1360 02C0                             u2080 03CA  
                           u2217 0EE7                             u1281 0020                             u1601 0656  
                           u1521 0591                             u1505 0519                             u1441 04B8  
                           u1425 047E                             u2137 02DD                             u1361 02BF  
                           u2081 03C9                             u1610 0677                             u1530 059B  
                           u1450 04CD                             u1370 0404                             u2090 03D7  
                           u2227 0EFC                             u1195 0FBE                             u2147 06AC  
                           u1611 0676                             u1531 0599                             u1451 04CC  
                           u1435 048D                             u1371 0403                             u2091 03D6  
                           u2075 03AE                             u1700 077F                             u1620 0682  
                           u1540 059C                             u1460 04DC                             u1380 043A  
                           u2237 0F06                             u2157 0F46                             u1621 0681  
                           u1605 0653                             u1461 04DB                             u1445 04B5  
                           u1381 0439                             u1710 07E0                             u1630 0696  
                           u1550 05C0                             u1470 04E9                             u1390 0440  
                           u2167 0F55                             u1295 0025                             u1711 07DF  
                           u1631 0695                             u1551 05BF                             u1471 04E8  
                           u1455 04C9                             u1391 043F                             u1375 0400  
                           u1640 06EA                             u1560 05F1                             u1480 04F6  
                           u1800 01D5                             u1720 0181                             u2177 0F63  
                           u1641 06E6                             u1561 05F0                             u1481 04F5  
                           u1465 04D8                             u1801 01D4                             u1721 0180  
                           u1570 0638                             u1490 050E                             u1810 01DB  
                           u1730 0187                             u2187 0F79                             u1635 0692  
                           u1571 0637                             u1491 050D                             u1811 01DA  
                           u1731 0186                             u1660 06F1                             u1580 063E  
                           u1820 01E1                             u1740 018D                             u1900 0E5F  
                           u2197 0F87                             u1661 06F0                             u1581 063D  
                           u1485 04F2                             u1821 01E0                             u1741 018C  
                           u1901 0E5E                             u1670 0764                             u1654 06ED  
                           u1590 0644                             u1830 01E7                             u1750 0193  
                           u1910 0E66                             u1671 0763                             u1591 0643  
                           u1495 050A                             u1831 01E6                             u1751 0192  
                           u1911 0E65                             u1680 0775                             u1840 01FF  
                           u1760 01AB                             u1920 0E6D                             u1681 0774  
                           u1841 01FE                             u1761 01AA                             u1921 0E6C  
                           u1690 077E                             u1850 0205                             u1770 01B1  
                           u1930 0E74                             u1691 077C                             u1851 0204  
                           u1771 01B0                             u1931 0E73                             u1940 00F1  
                           u1860 020B                             u1780 01B7                             u1941 00F0  
                           u1861 020A                             u1781 01B6                             u1950 0105  
                           u1870 0211                             u1790 01BD                             u1951 0104  
                           u1871 0210                             u1791 01BC                             u1960 0114  
                           u1880 0083                             u1961 0113                             u1881 0082  
                           u1970 0164                             u1890 00BD                             u1971 0163  
                           u1891 00BC                             _PEIE 005E                             u1980 0317  
                           u1885 007F                             u1981 0316                             u1990 031E  
                           u1895 00B9                             u1991 031D                             _flag 0032  
                           _main 02F2                             btemp 007E                             start 0000  
           ??_init_matrix_keypad 0070                   clcd_write@byte 0073                   clcd_write@mode 0070  
        __end_of_power_on_screen 00CD                            ?_main 0070                  __end_of___awdiv 1000  
                          STR_10 0866                            STR_11 080E                            STR_12 080E  
                          STR_20 08B4                            STR_21 092F                            STR_13 0855  
                          STR_22 08EB                            STR_14 08A5                            STR_23 0866  
                          STR_15 090E                            STR_24 0896                            STR_16 0822  
                          STR_25 08D0                            STR_17 0811                            STR_26 0903  
                          STR_18 0800                            STR_27 08D0                            STR_19 0877  
                          STR_28 0903                  __end_of___awmod 005F                            STR_29 080D  
                ___awdiv@divisor 0070                     ?_init_config 0070                  ___awdiv@counter 0074  
                          _PORTD 0008                            _TRISB 0086                            _TRISD 0088  
                   ?_init_timer2 0070                            _nRBPU 040F               _read_matrix_keypad 0E53  
                          pclath 000A              ?_read_matrix_keypad 0070                            status 0003  
                          wtemp0 007E                     ?_scan_keypad 0070                  __initialization 07ED  
                   __end_of_main 03F4             ??_read_matrix_keypad 0072                           ??_main 004D  
               ___awdiv@dividend 0072                           _TMR2IE 0461                           _TMR2ON 0092  
                         _TRISC1 0439                           _TRISC2 043A                           _TRISE1 0449  
                         _TRISE2 044A            __end_of_clear_display 0DCB          _init_display_controller 0F42  
                         ___wmul 0E2E                        ??___awdiv 0074                 ?_power_on_screen 0070  
                      ??___awmod 007C                 ___awdiv@quotient 0076                  ___awmod@divisor 0078  
                ___awmod@counter 007C                 __end_of_set_temp 07ED                 __end_of_set_time 05E7  
        __end_of__initialization 07FC                ??_opearation_call 004A                   __pcstackCOMMON 0070  
                   __pidataBANK0 0005                       __pbssBANK0 0020     __end_of_cooking_mode_display 0EA7  
      ??_init_display_controller 0074                       _clcd_print 0EA7                       _clcd_putch 0DFB  
                     _clcd_write 0ED6                       __pmaintext 02F2                          ?___wmul 0070  
                        _T2CKPS0 0090                          _T2CKPS1 0091                       __stringtab 0933  
                      ?_set_temp 0070                        ?_set_time 0070                          ___awdiv 0F99  
                        ___awmod 0006                          __ptext1 0E53                          __ptext2 0169  
                        __ptext3 005F                          __ptext4 00CD                          __ptext5 0215  
                        __ptext6 03F4                          __ptext7 05E7                          __ptext8 0F0C  
                        __ptext9 0DC3  __end_of_init_display_controller 0F99                __end_of_init_clcd 0DDE  
               ___awmod@dividend 007A                    ?_time_display 0070                          main@key 0050  
                        clrloop0 0DCC             end_of_initialization 07FC                      set_temp@key 0049  
                    set_time@key 0046                   _operation_mode 003C                      ?_clcd_print 0074  
                    ?_clcd_putch 0044                      ?_clcd_write 0070                       _reset_flag 003A  
                     ??_set_temp 0046                       ??_set_time 0044                     __pstringtext 0800  
           _cooking_mode_display 0E7A                   ??_time_display 0046                  _opearation_call 00CD  
                  clcd_print@str 0074                   __end_of___wmul 0E53            ?_cooking_mode_display 0070  
            start_initialization 07ED                     scan_keypad@i 0070           read_matrix_keypad@mode 0072  
         read_matrix_keypad@once 0051                         ??___wmul 0074                      __pdataBANK0 0051  
        __end_of_opearation_call 0169                    ??_init_config 0076                    ??_init_timer2 0070  
                      ___latbits 0002                    __pcstackBANK0 0044                    ??_scan_keypad 0070  
                  _clear_display 0DC3             power_on_screen@i_126 004B             __end_of_time_display 02F2  
                       ?___awdiv 0070                         ?___awmod 0078                        _heat_flag 0030  
                      __pstrings 0933           ??_cooking_mode_display 0077               opearation_call@key 004C  
                      _init_clcd 0DD3              __end_of_init_config 0E2E                        _min_array 003E  
              ??_power_on_screen 0046              __end_of_init_timer2 0DEB                        _sec_array 0041  
       ?_init_display_controller 0070                   ___wmul@product 0074                   ?_clear_display 0070  
                      clear_ram0 0DCB                     ??_clcd_print 0077                     ??_clcd_putch 007E  
     __end_of_init_matrix_keypad 0DFB                     ??_clcd_write 0071                set_temp@key_count 0022  
            __end_of_scan_keypad 0215                      __stringbase 0945                ___wmul@multiplier 0070  
               ?_opearation_call 0070               __end_of_clcd_print 0ED6               __end_of_clcd_putch 0E10  
             __end_of_clcd_write 0F0C                       ?_init_clcd 0070            read_matrix_keypad@key 0073  
              set_time@blink_pos 002A                    set_temp@blink 0026                    set_time@blink 002E  
     __end_of_read_matrix_keypad 0E7A               __end_of__stringtab 0945                set_time@key_count 0028  
                    _init_config 0E10                      _init_timer2 0DDE                         __ptext10 0DFB  
                       __ptext11 0E2E                         __ptext20 0F42                         __ptext12 0006  
                       __ptext21 0ED6                         __ptext13 0F99                         __ptext14 0E7A  
                       __ptext15 0EA7                         __ptext16 0E10                         __ptext17 0DDE  
                       __ptext18 0DEB                         __ptext19 0DD3                  ??_clear_display 0074  
                    _scan_keypad 0169                         _set_temp 05E7                         _set_time 03F4  
              _door_status_check 0F0C               ?_door_status_check 0070                     set_temp@temp 0020  
                   set_temp@wait 0024                     set_time@wait 002C              ??_door_status_check 0077  
                    ??_init_clcd 0076                     _time_display 0215                        stringcode 093D  
      __end_of_door_status_check 0F42                  _power_on_screen 005F                         stringtab 0933  
               power_on_screen@i 0049  
